
dp-static:     file format elf64-x86-64

SYMBOL TABLE:
00000000000002fc l     O .note.ABI-tag	0000000000000020              __abi_tag
0000000000000000 l    df *ABS*	0000000000000000              crtstuff.c
00000000000cc988 l     O .tm_clone_table	0000000000000000              __TMC_LIST__
0000000000035830 l     F .text	0000000000000000              deregister_tm_clones
0000000000035860 l     F .text	0000000000000000              register_tm_clones
00000000000358a0 l     F .text	0000000000000000              __do_global_dtors_aux
00000000000cd348 l     O .bss	0000000000000001              completed.0
00000000000c17f0 l     O .fini_array	0000000000000000              __do_global_dtors_aux_fini_array_entry
00000000000358e0 l     F .text	0000000000000000              frame_dummy
00000000000c1800 l     O .init_array	0000000000000000              __frame_dummy_init_array_entry
00000000000cc988 l     O .data	0000000000000000              .hidden __dso_handle
0000000000000000 l    df *ABS*	0000000000000000              0aiph4ur1ubaog4rg7uu0j63i
0000000000000000 l    df *ABS*	0000000000000000              0gakd9i571hvhdu1qrstncxtc
00000000000358f0 l     F .text	000000000000006b              _ZN3std3ffi6os_str103_$LT$impl$u20$core..convert..AsRef$LT$std..ffi..os_str..OsStr$GT$$u20$for$u20$alloc..string..String$GT$6as_ref17h3de84512dbf12183E
0000000000035a10 l     F .text	0000000000000132              _ZN5alloc6string6String4push17h668111e2ae9508c2E
0000000000035bc0 l     F .text	000000000000004a              _ZN5alloc6string6String8push_str17hd28bda76ac8ce439E
0000000000035b50 l     F .text	0000000000000061              _ZN5alloc6string6String6as_str17hb9e20be8abd3c76cE
0000000000035960 l     F .text	000000000000000c              .hidden _ZN3std4path95_$LT$impl$u20$core..convert..AsRef$LT$std..path..Path$GT$$u20$for$u20$alloc..string..String$GT$6as_ref17h7ad1da607c4a9741E
0000000000035970 l     F .text	0000000000000022              .hidden _ZN58_$LT$alloc..string..String$u20$as$u20$core..fmt..Write$GT$10write_char17h1de07f4d652b7770E
00000000000359a0 l     F .text	0000000000000027              .hidden _ZN58_$LT$alloc..string..String$u20$as$u20$core..fmt..Write$GT$9write_str17hc869ed16ae0c260eE
00000000000359d0 l     F .text	000000000000003a              .hidden _ZN5alloc6string6String3new17ha5ec254a7314fdd9E
0000000000035c10 l     F .text	000000000000000c              .hidden _ZN65_$LT$alloc..string..String$u20$as$u20$core..ops..deref..Deref$GT$5deref17h4285c00ee63c9c33E
0000000000000000 l    df *ABS*	0000000000000000              0ush8vg3d0wci3t1lgqltunqj
0000000000035c20 l     F .text	0000000000000088              .hidden _ZN107_$LT$core..iter..adapters..fuse..Fuse$LT$I$GT$$u20$as$u20$core..iter..adapters..fuse..FuseImpl$LT$I$GT$$GT$4next17ha8a7dc6215bb1c84E
0000000000000000 l    df *ABS*	0000000000000000              0x5sf8dt57f98kqchflyrlaym
0000000000035cb0 l     F .text	0000000000000008              .hidden _ZN6chrono6offset5fixed11FixedOffset15local_minus_utc17hdc17728d3e78ca43E
0000000000000000 l    df *ABS*	0000000000000000              0zi39ht5cbh3z7p5l1o2yn31b
0000000000035cc0 l     F .text	00000000000000f7              .hidden _ZN4core4char7convert18from_u32_unchecked18precondition_check17hb49f75dce359aaa8E
0000000000000000 l    df *ABS*	0000000000000000              10lbh05g2zbkmr35oloz4jrjq
0000000000035dc0 l     F .text	0000000000000014              .hidden _ZN4core3str21_$LT$impl$u20$str$GT$5chars17hffa850f26722f9e6E
0000000000000000 l    df *ABS*	0000000000000000              1cne11xnq10cjsph4pgz92gee
0000000000035de0 l     F .text	00000000000000a1              .hidden _ZN5alloc3vec16Vec$LT$T$C$A$GT$7set_len18precondition_check17had5fa42cc44ecab2E
0000000000000000 l    df *ABS*	0000000000000000              1f630miyp4cwzv6y305q1c1jw
0000000000035e90 l     F .text	0000000000000059              .hidden _ZN4core6option15Option$LT$T$GT$3map17h26b31761d113ceb7E
0000000000000000 l    df *ABS*	0000000000000000              1pbcy7bzaf9ttzq830jtb5jqj
0000000000035ef0 l     F .text	0000000000000040              .hidden _ZN49_$LT$usize$u20$as$u20$core..iter..range..Step$GT$17forward_unchecked17h958d81dfecda0548E
0000000000000000 l    df *ABS*	0000000000000000              21iii2jw3uqxj5vce30g5krlw
0000000000035f30 l     F .text	00000000000000a1              .hidden _ZN4core5slice29_$LT$impl$u20$$u5b$T$u5d$$GT$22split_at_mut_unchecked18precondition_check17hf9d952c2f7a78ac8E
0000000000000000 l    df *ABS*	0000000000000000              29s5md8hqidmp07xnow7invau
000000000001f6c8 l       .gcc_except_table	0000000000000000              GCC_except_table0
000000000001f6dc l       .gcc_except_table	0000000000000000              GCC_except_table1
0000000000035fe0 l     F .text	0000000000000279              .hidden _ZN4core5slice3raw14from_raw_parts18precondition_check17he67962989a773773E
0000000000036260 l     F .text	0000000000000279              .hidden _ZN4core5slice3raw18from_raw_parts_mut18precondition_check17h5c376b32044244d7E
00000000000cc990 l     O .data	0000000000000008              .hidden DW.ref.rust_eh_personality
0000000000000000 l    df *ABS*	0000000000000000              2ic9fpu9weot5if318jfa16c0
0000000000036680 l     F .text	00000000000000aa              .hidden _ZN4core3num23_$LT$impl$u20$usize$GT$13unchecked_add18precondition_check17hc98a33f1ee8b27f4E
00000000000364e0 l     F .text	00000000000000e9              .hidden _ZN4core3num21_$LT$impl$u20$i32$GT$10div_euclid17hf77a8b4e7adc2685E
00000000000365d0 l     F .text	00000000000000af              .hidden _ZN4core3num21_$LT$impl$u20$i32$GT$10rem_euclid17h6677bffd69ca0b9dE
0000000000000000 l    df *ABS*	0000000000000000              2j8h91fai3junoza4wowusubo
0000000000036730 l     F .text	00000000000006c0              _ZN4core5slice4sort6stable9quicksort16stable_partition17h1c85eb0c6de5d7f4E
00000000000374b0 l     F .text	000000000000012c              _ZN4core5slice4sort6stable9quicksort23PartitionState$LT$T$GT$13partition_one17h9307482dc9aec324E
0000000000037ad0 l     F .text	0000000000000005              _ZN68_$LT$T$u20$as$u20$core..slice..sort..stable..quicksort..IsFreeze$GT$9is_freeze17h9780a54d9bf7b83eE
0000000000036df0 l     F .text	00000000000006c0              _ZN4core5slice4sort6stable9quicksort16stable_partition17h411f8017e38f5e72E
0000000000037a90 l     F .text	0000000000000031              _ZN4core5slice4sort6stable9quicksort9quicksort28_$u7b$$u7b$closure$u7d$$u7d$17h4a40798101085171E
00000000000375e0 l     F .text	00000000000004ac              .hidden _ZN4core5slice4sort6stable9quicksort9quicksort17h6fc9fe503063a92eE
0000000000000000 l    df *ABS*	0000000000000000              2pz7tfwpvxxsyal9epuzxzl7i
0000000000037ae0 l     F .text	00000000000000a0              .hidden _ZN4core4hint16assert_unchecked18precondition_check17h2c2b9c196f5a6591E
0000000000000000 l    df *ABS*	0000000000000000              2r64yrwzcb6x4vho1gvbdsaiw
0000000000037b80 l     F .text	000000000000004b              .hidden _ZN4core3fmt2rt38_$LT$impl$u20$core..fmt..Arguments$GT$16new_v1_formatted17h21770121871f963aE
0000000000037bd0 l     F .text	0000000000000032              .hidden _ZN53_$LT$core..fmt..Error$u20$as$u20$core..fmt..Debug$GT$3fmt17hff271900fc14c451E
0000000000000000 l    df *ABS*	0000000000000000              2xhhnej6ktb40hv5n2vz6mgxb
0000000000037d70 l     F .text	000000000000015d              .hidden _ZN4core4char7methods25encode_utf8_raw_unchecked17hb9ba4cf041aac447E
0000000000037c10 l     F .text	00000000000000f3              .hidden _ZN4core4char7methods15encode_utf8_raw17h831cd59f3bbe3571E
0000000000037d10 l     F .text	000000000000005e              .hidden _ZN4core4char7methods22_$LT$impl$u20$char$GT$12to_lowercase17hab18e46d15c24b43E
0000000000000000 l    df *ABS*	0000000000000000              31hdpvujznz9o67ez8bjavlmx
0000000000037ed0 l     F .text	000000000000002b              .hidden _ZN4core3fmt2rt8Argument11new_display17h62555c8b9daa7d85E
0000000000037f00 l     F .text	000000000000002b              .hidden _ZN4core3fmt2rt8Argument11new_display17hd1cd7992b005548bE
0000000000000000 l    df *ABS*	0000000000000000              3sbhw3pctfcmfyktdek62tgp6
0000000000037f30 l     F .text	0000000000000065              .hidden _ZN4core3ptr8non_null16NonNull$LT$T$GT$20offset_from_unsigned17h342ffa1c31810719E
0000000000000000 l    df *ABS*	0000000000000000              3ws1bc73d4zy68g36js9b29c7
0000000000037fa0 l     F .text	000000000000000e              .hidden _ZN6chrono5naive7isoweek7IsoWeek4week17had3b30a20840a3f4E
0000000000037fb0 l     F .text	000000000000000b              .hidden _ZN6chrono5naive7isoweek7IsoWeek4year17hd6f223f550e8b337E
0000000000000000 l    df *ABS*	0000000000000000              4kpq392msb0tvaddo26rwd1ny
0000000000038080 l     F .text	0000000000000055              _ZN103_$LT$alloc..vec..into_iter..IntoIter$LT$T$C$A$GT$$u20$as$u20$core..iter..traits..iterator..Iterator$GT$9size_hint17h2b2d74b86f9a532fE
0000000000037fc0 l     F .text	00000000000000b9              .hidden _ZN103_$LT$alloc..vec..into_iter..IntoIter$LT$T$C$A$GT$$u20$as$u20$core..iter..traits..iterator..Iterator$GT$4next17hc98dd37bbfe30d36E
00000000000380e0 l     F .text	00000000000000da              .hidden _ZN4core4iter6traits10exact_size17ExactSizeIterator3len17h503765c40b0582cbE
0000000000000000 l    df *ABS*	0000000000000000              5uot8v0j31a31ow4pkas32e2f
00000000000381c0 l     F .text	0000000000000036              .hidden _ZN6chrono7weekday7Weekday18number_from_monday17hcccb83ff6a1f1385E
0000000000038200 l     F .text	0000000000000012              .hidden _ZN6chrono7weekday7Weekday20num_days_from_sunday17hca595283beb3a541E
0000000000000000 l    df *ABS*	0000000000000000              69voophuw13b9gatl2ib0npwf
0000000000038220 l     F .text	0000000000000091              .hidden _ZN5alloc7raw_vec19RawVec$LT$T$C$A$GT$8grow_one17h3882e991ed113b7eE
0000000000000000 l    df *ABS*	0000000000000000              6csylxizjgaupna4za53oasrt
00000000000382c0 l     F .text	00000000000000a1              .hidden _ZN4core3ptr9const_ptr33_$LT$impl$u20$$BP$const$u20$T$GT$20offset_from_unsigned18precondition_check17h8985dc1f7f8371c1E
0000000000000000 l    df *ABS*	0000000000000000              6hyfix4wjm59rkjs6gsjooa2t
0000000000038380 l     F .text	000000000000014b              _ZN116_$LT$core..iter..adapters..flatten..FlattenCompat$LT$I$C$U$GT$$u20$as$u20$core..iter..traits..iterator..Iterator$GT$4next17h10579201c7ace04eE
000000000001f6f0 l       .gcc_except_table	0000000000000000              GCC_except_table1
0000000000038370 l     F .text	000000000000000c              .hidden _ZN114_$LT$core..iter..adapters..flatten..FlatMap$LT$I$C$U$C$F$GT$$u20$as$u20$core..iter..traits..iterator..Iterator$GT$4next17h97f122ad1cf3c70dE
00000000000384d0 l     F .text	0000000000000018              .hidden _ZN63_$LT$I$u20$as$u20$core..iter..traits..collect..IntoIterator$GT$9into_iter17h6264986a763aba61E
0000000000000000 l    df *ABS*	0000000000000000              7dof5mxwravozj7tki36qixld
00000000000384f0 l     F .text	00000000000000d7              .hidden _ZN4core9ub_checks23maybe_is_nonoverlapping7runtime17h5c744dbfb3198d16E
0000000000000000 l    df *ABS*	0000000000000000              7l8qmub0y1lz3zzhzsms189yn
00000000000385d0 l     F .text	00000000000000e1              .hidden _ZN62_$LT$chrono..format..Fixed$u20$as$u20$core..cmp..PartialEq$GT$2eq17h517bcace4e49d179E
0000000000000000 l    df *ABS*	0000000000000000              7tynwddxe2e2y8t4b6337my6l
00000000000386c0 l     F .text	00000000000001c8              _ZN4core5slice4sort6shared9smallsort11insert_tail17hd92877248dc13cbfE
000000000001f704 l       .gcc_except_table	0000000000000000              GCC_except_table0
0000000000038890 l     F .text	0000000000000d09              _ZN4core5slice4sort6shared9smallsort12sort4_stable17h6e4351a4c6c2fc85E
00000000000395a0 l     F .text	00000000000000a5              _ZN4core5slice4sort6shared9smallsort12sort8_stable17h7690c08687b13c77E
0000000000039650 l     F .text	0000000000000780              _ZN4core5slice4sort6shared9smallsort19bidirectional_merge17hebccf47a80518852E
000000000001f728 l       .gcc_except_table	0000000000000000              GCC_except_table5
0000000000039e90 l     F .text	00000000000006dc              .hidden _ZN4core5slice4sort6shared9smallsort31small_sort_general_with_scratch17h1859e321c64fd9c4E
0000000000039dd0 l     F .text	00000000000000bd              .hidden _ZN4core5slice4sort6shared9smallsort25insertion_sort_shift_left17ha78c7ff139341a78E
0000000000000000 l    df *ABS*	0000000000000000              7vn95k92ers98vp0ag3qccnzl
000000000003a570 l     F .text	0000000000000003              .hidden _ZN54_$LT$$LP$$RP$$u20$as$u20$std..process..Termination$GT$6report17h2afe6fb8d4f0c86fE
0000000000000000 l    df *ABS*	0000000000000000              8h33guj4gs6up8hv4orqmf45m
000000000003a580 l     F .text	00000000000001fb              _ZN4core5slice4sort6stable5merge19MergeState$LT$T$GT$10merge_down17h852821e4a7bf5fe9E
000000000003a780 l     F .text	0000000000000181              _ZN4core5slice4sort6stable5merge19MergeState$LT$T$GT$8merge_up17h0c2981617ea6bac2E
000000000001f764 l       .gcc_except_table	0000000000000000              GCC_except_table2
000000000003a910 l     F .text	0000000000000421              .hidden _ZN4core5slice4sort6stable5merge5merge17hd1b7d0b7b1cff465E
0000000000000000 l    df *ABS*	0000000000000000              8uxetmp5fsmhfkmq81duwlhg4
000000000003ad60 l     F .text	0000000000000130              _ZN49_$LT$T$u20$as$u20$alloc..string..SpecToString$GT$14spec_to_string17h09cccdbd501a94d4E
000000000001f794 l       .gcc_except_table	0000000000000000              GCC_except_table1
000000000003ad40 l     F .text	0000000000000020              .hidden _ZN45_$LT$T$u20$as$u20$alloc..string..ToString$GT$9to_string17h1458bad2dcedec99E
0000000000000000 l    df *ABS*	0000000000000000              9hr1lnptym78qdj6c4pn4dutf
000000000003ae90 l     F .text	0000000000000018              .hidden _ZN6chrono5naive8datetime13NaiveDateTime3new17ha44b6df6138f71c7E
000000000003aeb0 l     F .text	0000000000000008              .hidden _ZN6chrono5naive8datetime13NaiveDateTime4date17h0611f4f8bdfd1f7eE
000000000003aec0 l     F .text	000000000000000c              .hidden _ZN6chrono5naive8datetime13NaiveDateTime4time17h756c639e15b5463cE
0000000000000000 l    df *ABS*	0000000000000000              9q75tbmf2ovoykeu0snuxg1du
000000000001f7b8 l       .gcc_except_table	0000000000000000              GCC_except_table0
000000000001f7cc l       .gcc_except_table	0000000000000000              GCC_except_table1
000000000003aed0 l     F .text	00000000000004c2              .hidden _ZN4core3ptr19copy_nonoverlapping18precondition_check17hd6634ac9e29d1696E
0000000000000000 l    df *ABS*	0000000000000000              9s4i9xcmmyzso6el812iqi6h5
000000000003b3a0 l     F .text	0000000000000027              .hidden _ZN61_$LT$dp..payload..Sixteen$u20$as$u20$dp..payload..Payload$GT$3run17h08df6e0d76d7f53fE
0000000000000000 l    df *ABS*	0000000000000000              a4wfdwjjp4x12gspo2uwd37iq
000000000003b3d0 l     F .text	000000000000000a              .hidden _ZN4core9core_arch3x865rdtsc6_rdtsc17hde793ef420c4f052E
0000000000000000 l    df *ABS*	0000000000000000              a5c3tad1bgz367qygi9dndfq7
000000000003b3e0 l     F .text	000000000000003c              .hidden _ZN3std2rt10lang_start17h3bc5e7023f5c34d9E
000000000003b420 l     F .text	0000000000000022              .hidden _ZN3std2rt10lang_start28_$u7b$$u7b$closure$u7d$$u7d$17h105f07b5d8ee54fbE
0000000000000000 l    df *ABS*	0000000000000000              a6deqxvyu0za417knesrpwgcb
000000000001f7e0 l       .gcc_except_table	0000000000000000              GCC_except_table2
0000000000000000 l    df *ABS*	0000000000000000              ahbun37ianxjilwjp01aphi3b
000000000003b450 l     F .text	00000000000000a1              .hidden _ZN104_$LT$core..ops..index_range..IndexRange$u20$as$u20$core..slice..index..SliceIndex$LT$$u5b$T$u5d$$GT$$GT$17get_unchecked_mut18precondition_check17hf15fe6fb9f40f73dE
000000000003b500 l     F .text	00000000000000c6              .hidden _ZN106_$LT$core..ops..range..Range$LT$usize$GT$$u20$as$u20$core..slice..index..SliceIndex$LT$$u5b$T$u5d$$GT$$GT$17get_unchecked_mut18precondition_check17h5e7934c3f56acd67E
000000000003b5d0 l     F .text	00000000000000a1              .hidden _ZN75_$LT$usize$u20$as$u20$core..slice..index..SliceIndex$LT$$u5b$T$u5d$$GT$$GT$13get_unchecked18precondition_check17h1972c28496c048cfE
0000000000000000 l    df *ABS*	0000000000000000              aj6me6i4sfb3ygxaaw85fc7nf
000000000003b680 l     F .text	0000000000000100              _ZN6chrono8datetime18DateTime$LT$Tz$GT$17format_with_items17h6f3481a354682367E
000000000003b780 l     F .text	0000000000000055              _ZN6chrono8datetime18DateTime$LT$Tz$GT$23overflowing_naive_local17h78d270ebc5c5fb8cE
000000000001f7f0 l       .gcc_except_table	0000000000000000              GCC_except_table0
000000000003b7e0 l     F .text	0000000000000063              .hidden _ZN6chrono8datetime18DateTime$LT$Tz$GT$6format17h65797708f75b2e7bE
0000000000000000 l    df *ABS*	0000000000000000              aw03zqdi2isixqx250fazrlfs
000000000003b850 l     F .text	0000000000000009              .hidden _ZN6chrono5naive4time9NaiveTime10nanosecond17hf80a8e4550e036b2E
000000000003b860 l     F .text	0000000000000020              .hidden _ZN75_$LT$chrono..naive..time..NaiveTime$u20$as$u20$chrono..traits..Timelike$GT$4hour17hac2dea0139a57c94E
000000000003b880 l     F .text	0000000000000020              .hidden _ZN75_$LT$chrono..naive..time..NaiveTime$u20$as$u20$chrono..traits..Timelike$GT$6minute17hfef3a9191bfce022E
000000000003b8a0 l     F .text	0000000000000020              .hidden _ZN75_$LT$chrono..naive..time..NaiveTime$u20$as$u20$chrono..traits..Timelike$GT$6second17hc755883868676bcdE
0000000000000000 l    df *ABS*	0000000000000000              b8dxujikpzk17tssscicac28e
000000000003b8c0 l     F .text	0000000000000013              .hidden _ZN3std3sys9backtrace28__rust_begin_short_backtrace17hf087885d1f19513fE
0000000000000000 l    df *ABS*	0000000000000000              br8b04zjucfbxupzlnzy5g0ha
000000000001f800 l       .gcc_except_table	0000000000000000              GCC_except_table0
000000000003b8e0 l     F .text	0000000000000746              .hidden _ZN2dp4main17h49330c9bb3fb1609E
0000000000000000 l    df *ABS*	0000000000000000              bzoef53ckn3z3j6klfgunx7gw
000000000003c050 l     F .text	0000000000000029              _ZN100_$LT$core..array..iter..iter_inner..PolymorphicIter$LT$DATA$GT$$u20$as$u20$core..ops..drop..Drop$GT$4drop17h74358a8072e7c758E
000000000003c080 l     F .text	000000000000006d              _ZN157_$LT$$LT$alloc..vec..into_iter..IntoIter$LT$T$C$A$GT$$u20$as$u20$core..ops..drop..Drop$GT$..drop..DropGuard$LT$T$C$A$GT$$u20$as$u20$core..ops..drop..Drop$GT$4drop17hf72cefa716434416E
000000000003c290 l     F .text	000000000000000c              _ZN4core3ptr54drop_in_place$LT$alloc..raw_vec..RawVec$LT$u64$GT$$GT$17h06d46238b2af6ca8E
000000000003c150 l     F .text	000000000000003c              _ZN4core3ops8function6FnOnce9call_once17h2e971b49a76da497E
000000000001f8a4 l       .gcc_except_table	0000000000000000              GCC_except_table5
000000000003c1a0 l     F .text	000000000000000c              _ZN4core3ptr145drop_in_place$LT$core..array..iter..iter_inner..PolymorphicIter$LT$$u5b$core..mem..maybe_uninit..MaybeUninit$LT$usize$GT$$u3b$$u20$2$u5d$$GT$$GT$17hc07f74d5efe77ebaE
000000000003c1b0 l     F .text	000000000000000c              _ZN4core3ptr157drop_in_place$LT$$LT$alloc..vec..into_iter..IntoIter$LT$T$C$A$GT$$u20$as$u20$core..ops..drop..Drop$GT$..drop..DropGuard$LT$u64$C$alloc..alloc..Global$GT$$GT$17h436fb76a9ee2c656E
000000000003c1d0 l     F .text	0000000000000061              _ZN4core3ptr322drop_in_place$LT$core..iter..adapters..flatten..FlattenCompat$LT$core..iter..adapters..map..Map$LT$core..str..iter..Chars$C$chrono..format..formatting..DelayedFormat$LT$chrono..format..strftime..StrftimeItems$GT$..format_fixed$LT$alloc..string..String$GT$..$u7b$$u7b$closure$u7d$$u7d$$GT$$C$core..char..ToLowercase$GT$$GT$17hbdad13a2ee9bdefdE
000000000001f8b0 l       .gcc_except_table	0000000000000000              GCC_except_table10
000000000003c340 l     F .text	0000000000000018              _ZN70_$LT$alloc..vec..Vec$LT$T$C$A$GT$$u20$as$u20$core..ops..drop..Drop$GT$4drop17he00853c6bbb12ac7E
000000000001f8c8 l       .gcc_except_table	0000000000000000              GCC_except_table11
000000000003c360 l     F .text	0000000000000015              _ZN77_$LT$alloc..raw_vec..RawVec$LT$T$C$A$GT$$u20$as$u20$core..ops..drop..Drop$GT$4drop17h6d557f558c15eb08E
000000000003c390 l     F .text	0000000000000081              _ZN86_$LT$alloc..vec..into_iter..IntoIter$LT$T$C$A$GT$$u20$as$u20$core..ops..drop..Drop$GT$4drop17h73bf88bd662f43dcE
000000000003c380 l     F .text	0000000000000006              _ZN82_$LT$core..array..iter..IntoIter$LT$T$C$_$GT$$u20$as$u20$core..ops..drop..Drop$GT$4drop17hefc4cbe05ad05092E
000000000001f8e0 l       .gcc_except_table	0000000000000000              GCC_except_table14
000000000003c420 l     F .text	00000000000000d1              _ZN95_$LT$core..slice..sort..stable..merge..MergeState$LT$T$GT$$u20$as$u20$core..ops..drop..Drop$GT$4drop17h24bef762e0119dbeE
000000000003c500 l     F .text	000000000000006f              _ZN99_$LT$core..slice..sort..shared..smallsort..CopyOnDrop$LT$T$GT$$u20$as$u20$core..ops..drop..Drop$GT$4drop17hfc4ee5bde265f85bE
000000000001f8f8 l       .gcc_except_table	0000000000000000              GCC_except_table22
000000000003c0f0 l     F .text	000000000000002f              .hidden _ZN4core3ops8function5FnMut8call_mut17hb460a8f6666dff16E
000000000003c330 l     F .text	000000000000000c              .hidden _ZN4core3ptr80drop_in_place$LT$core..slice..sort..shared..smallsort..CopyOnDrop$LT$u64$GT$$GT$17h53fcf3a9777367a4E
000000000003c2b0 l     F .text	0000000000000050              .hidden _ZN4core3ptr71drop_in_place$LT$core..array..iter..IntoIter$LT$usize$C$2_usize$GT$$GT$17h20ea32d67b9d1dd2E
000000000003c300 l     F .text	000000000000000c              .hidden _ZN4core3ptr76drop_in_place$LT$core..slice..sort..stable..merge..MergeState$LT$u64$GT$$GT$17h7aad9d3a67d7af3cE
000000000003c120 l     F .text	0000000000000016              .hidden _ZN4core3ops8function6FnOnce40call_once$u7b$$u7b$vtable.shim$u7d$$u7d$17h8bb1b8559ed65278E
000000000003c140 l     F .text	0000000000000010              .hidden _ZN4core3ops8function6FnOnce9call_once17h2b2ced146aae8e81E
000000000003c190 l     F .text	000000000000000d              .hidden _ZN4core3ptr109drop_in_place$LT$chrono..format..formatting..DelayedFormat$LT$chrono..format..strftime..StrftimeItems$GT$$GT$17hadf54f8ad2358e8bE
000000000003c2a0 l     F .text	000000000000000c              .hidden _ZN4core3ptr63drop_in_place$LT$alloc..vec..into_iter..IntoIter$LT$u64$GT$$GT$17haae947db873a2885E
000000000003c240 l     F .text	0000000000000050              .hidden _ZN4core3ptr47drop_in_place$LT$alloc..vec..Vec$LT$u64$GT$$GT$17hfa6f57afdcf733a7E
000000000003c1c0 l     F .text	000000000000000c              .hidden _ZN4core3ptr278drop_in_place$LT$core..iter..adapters..flatten..FlatMap$LT$core..str..iter..Chars$C$core..char..ToLowercase$C$chrono..format..formatting..DelayedFormat$LT$chrono..format..strftime..StrftimeItems$GT$..format_fixed$LT$alloc..string..String$GT$..$u7b$$u7b$closure$u7d$$u7d$$GT$$GT$17hb2b80634d87b3d0eE
000000000003c310 l     F .text	0000000000000011              .hidden _ZN4core3ptr77drop_in_place$LT$std..io..default_write_fmt..Adapter$LT$std..fs..File$GT$$GT$17hf05c7d0ab82b27dbE
0000000000000000 l    df *ABS*	0000000000000000              cb2hc1ra0omzg7mmpyk9sok7l
000000000003c570 l     F .text	00000000000000bb              _ZN118_$LT$$u5b$core..mem..maybe_uninit..MaybeUninit$LT$T$GT$$u5d$$u20$as$u20$core..array..iter..iter_inner..PartialDrop$GT$12partial_drop17haf25a01e929e661fE
000000000003c630 l     F .text	0000000000000035              .hidden _ZN129_$LT$$u5b$core..mem..maybe_uninit..MaybeUninit$LT$T$GT$$u3b$$u20$N$u5d$$u20$as$u20$core..array..iter..iter_inner..PartialDrop$GT$12partial_drop17h45fbb138eb630979E
0000000000000000 l    df *ABS*	0000000000000000              cg1st43878poz3mlhdl0ot1dl
000000000003c670 l     F .text	000000000000000f              _ZN6chrono5naive4date9NaiveDate10year_flags17h0b4c42f0a6792931E
000000000003c6f0 l     F .text	000000000000000f              _ZN6chrono5naive4date9NaiveDate3yof17hc36ec20962feb4f0E
000000000003c680 l     F .text	0000000000000021              _ZN6chrono5naive4date9NaiveDate3day17h0ae4f4b6a4cb1698E
000000000003c6b0 l     F .text	0000000000000038              _ZN6chrono5naive4date9NaiveDate3mdf17h7c7352889667cce8E
000000000003c700 l     F .text	000000000000000f              _ZN6chrono5naive4date9NaiveDate4year17he9ec18b933adfd79E
000000000003c710 l     F .text	0000000000000021              _ZN6chrono5naive4date9NaiveDate5month17haed6f0ff2679830eE
000000000003c740 l     F .text	0000000000000014              _ZN6chrono5naive4date9NaiveDate7ordinal17h19b02ead250c9039E
000000000003c760 l     F .text	00000000000000e9              _ZN6chrono5naive4date9NaiveDate7weekday17h8e871464ad2ca4f1E
000000000003c850 l     F .text	0000000000000028              .hidden _ZN6chrono5naive4date9NaiveDate8and_time17h7c832d8a05e529d3E
000000000003c880 l     F .text	000000000000000c              .hidden _ZN75_$LT$chrono..naive..date..NaiveDate$u20$as$u20$chrono..traits..Datelike$GT$3day17h90027952db324460E
000000000003c890 l     F .text	000000000000000c              .hidden _ZN75_$LT$chrono..naive..date..NaiveDate$u20$as$u20$chrono..traits..Datelike$GT$4year17h4c484b8e57b3a7d5E
000000000003c8a0 l     F .text	000000000000000c              .hidden _ZN75_$LT$chrono..naive..date..NaiveDate$u20$as$u20$chrono..traits..Datelike$GT$5month17hb499cee81e7910bdE
000000000003c8b0 l     F .text	0000000000000032              .hidden _ZN75_$LT$chrono..naive..date..NaiveDate$u20$as$u20$chrono..traits..Datelike$GT$6month017h971b0e3ee02db276E
000000000003c8f0 l     F .text	0000000000000014              .hidden _ZN75_$LT$chrono..naive..date..NaiveDate$u20$as$u20$chrono..traits..Datelike$GT$7ordinal17h1405fb330d4d1048E
000000000003c910 l     F .text	000000000000000c              .hidden _ZN75_$LT$chrono..naive..date..NaiveDate$u20$as$u20$chrono..traits..Datelike$GT$7weekday17ha112dbbd4ca5028eE
000000000003c920 l     F .text	0000000000000042              .hidden _ZN75_$LT$chrono..naive..date..NaiveDate$u20$as$u20$chrono..traits..Datelike$GT$8iso_week17h1271698a220d9316E
0000000000000000 l    df *ABS*	0000000000000000              cgswxor6lmzxk2ei12isoezb8
000000000003c990 l     F .text	000000000000004f              _ZN5alloc3vec16Vec$LT$T$C$A$GT$12as_mut_slice17h810144003fab2b26E
000000000003ca00 l     F .text	00000000000000d0              _ZN5alloc3vec16Vec$LT$T$C$A$GT$8push_mut17h349240e8bf37bcfcE
000000000001f910 l       .gcc_except_table	0000000000000000              GCC_except_table3
000000000003c970 l     F .text	000000000000001c              .hidden _ZN5alloc3vec12Vec$LT$T$GT$3new17h1df79b300cecf963E
000000000003cbd0 l     F .text	000000000000000c              .hidden _ZN75_$LT$alloc..vec..Vec$LT$T$C$A$GT$$u20$as$u20$core..ops..deref..DerefMut$GT$9deref_mut17h4cb9d4bfdc3bfb9eE
000000000003cbe0 l     F .text	0000000000000108              .hidden _ZN90_$LT$alloc..vec..Vec$LT$T$C$A$GT$$u20$as$u20$core..iter..traits..collect..IntoIterator$GT$9into_iter17h1e8e8b93711a17b2E
000000000003c9e0 l     F .text	0000000000000018              .hidden _ZN5alloc3vec16Vec$LT$T$C$A$GT$4push17h2d26d5796f75629fE
000000000003cad0 l     F .text	0000000000000054              .hidden _ZN5alloc5slice99_$LT$impl$u20$core..slice..sort..stable..BufGuard$LT$T$GT$$u20$for$u20$alloc..vec..Vec$LT$T$GT$$GT$13with_capacity17h63abe2799a66d678E
000000000003cb30 l     F .text	000000000000009b              .hidden _ZN5alloc5slice99_$LT$impl$u20$core..slice..sort..stable..BufGuard$LT$T$GT$$u20$for$u20$alloc..vec..Vec$LT$T$GT$$GT$19as_uninit_slice_mut17hab7461af9190c868E
0000000000000000 l    df *ABS*	0000000000000000              cmjdaxxe4khz5ymtomajsmqln
000000000003cdc0 l     F .text	000000000000007c              _ZN89_$LT$core..ops..range..Range$LT$T$GT$$u20$as$u20$core..iter..range..RangeIteratorImpl$GT$9spec_next17h7ba737fa5cd13d1aE
000000000003ccf0 l     F .text	000000000000009d              .hidden _ZN110_$LT$core..ops..range..RangeFrom$LT$usize$GT$$u20$as$u20$core..slice..index..SliceIndex$LT$$u5b$T$u5d$$GT$$GT$9index_mut17hafb8a76320c30802E
000000000003cda0 l     F .text	0000000000000011              .hidden _ZN63_$LT$I$u20$as$u20$core..iter..traits..collect..IntoIterator$GT$9into_iter17h2e2805fcfa6e4e43E
000000000003cd90 l     F .text	000000000000000c              .hidden _ZN4core4iter5range101_$LT$impl$u20$core..iter..traits..iterator..Iterator$u20$for$u20$core..ops..range..Range$LT$A$GT$$GT$4next17h43f03a6c7e561076E
0000000000000000 l    df *ABS*	0000000000000000              coykqxwkqhtlhznzc73jsx1n4
000000000003ce40 l     F .text	00000000000000ba              .hidden _ZN102_$LT$core..iter..adapters..map..Map$LT$I$C$F$GT$$u20$as$u20$core..iter..traits..iterator..Iterator$GT$4next17hff4f0c5b0abd520bE
0000000000000000 l    df *ABS*	0000000000000000              cyesqjb9iy9kzqjr5540me0dp
000000000003cf00 l     F .text	00000000000000cb              .hidden _ZN5alloc3fmt6format17h6e4775d8d6cff48cE
0000000000000000 l    df *ABS*	0000000000000000              d11paa8if73hfhu22mv2kio5u
000000000003cfd0 l     F .text	000000000000056e              _ZN4core5slice4sort6stable5drift10create_run17hbb0a715e5be9a14cE
000000000003d540 l     F .text	00000000000000cf              _ZN4core5slice4sort6stable5drift16stable_quicksort17hfff9504c7b668208E
000000000003d610 l     F .text	00000000000007a7              .hidden _ZN4core5slice4sort6stable5drift4sort17h423b6a27d8adda4cE
0000000000000000 l    df *ABS*	0000000000000000              d2ey4mqdx5u2tirxbbsxecb8n
000000000003ddc0 l     F .text	00000000000001c0              .hidden _ZN4core5array4iter10iter_inner78PolymorphicIter$LT$$u5b$core..mem..maybe_uninit..MaybeUninit$LT$T$GT$$u5d$$GT$4next17hd41016cfbf5f6350E
0000000000000000 l    df *ABS*	0000000000000000              d4sj9o8q6svw0tstuetlugoj0
000000000003df80 l     F .text	00000000000000b1              _ZN5alloc5slice11stable_sort17h679221caa0abab4cE
000000000001f920 l       .gcc_except_table	0000000000000000              GCC_except_table0
000000000003e040 l     F .text	0000000000000018              .hidden _ZN5alloc5slice29_$LT$impl$u20$$u5b$T$u5d$$GT$4sort17h6431eb72be9ca810E
0000000000000000 l    df *ABS*	0000000000000000              d7srnk325vndqip99x7w1hnvs
000000000003e290 l     F .text	00000000000002fa              _ZN4core5slice29_$LT$impl$u20$$u5b$T$u5d$$GT$7reverse7revswap17h4050c87b059c7fccE
000000000003e060 l     F .text	0000000000000112              .hidden _ZN4core5slice29_$LT$impl$u20$$u5b$T$u5d$$GT$22split_at_mut_unchecked17hc78e89a1b28771c2E
000000000003e180 l     F .text	0000000000000106              .hidden _ZN4core5slice29_$LT$impl$u20$$u5b$T$u5d$$GT$7reverse17h1adeeed0ab04891aE
0000000000000000 l    df *ABS*	0000000000000000              d8psfa0y27rcy6dju95tw3guy
000000000003e590 l     F .text	00000000000014be              _ZN6chrono6format10formatting22DelayedFormat$LT$I$GT$12format_fixed17h64c471e5f9fdb944E
000000000001f930 l       .gcc_except_table	0000000000000000              GCC_except_table0
000000000003fa80 l     F .text	00000000000009db              _ZN6chrono6format10formatting22DelayedFormat$LT$I$GT$14format_numeric17hb0d1597a0f0ad43aE
000000000001f964 l       .gcc_except_table	0000000000000000              GCC_except_table4
0000000000040670 l     F .text	000000000000031f              _ZN6chrono6format10formatting22DelayedFormat$LT$I$GT$8write_to17h1d6e48f10ad0de62E
000000000001f990 l       .gcc_except_table	0000000000000000              GCC_except_table5
000000000001f9c4 l       .gcc_except_table	0000000000000000              GCC_except_table6
0000000000040460 l     F .text	0000000000000022              .hidden _ZN6chrono6format10formatting22DelayedFormat$LT$I$GT$14format_numeric28_$u7b$$u7b$closure$u7d$$u7d$17hf9e0ef34b4fc69ddE
0000000000040990 l     F .text	0000000000000123              .hidden _ZN89_$LT$chrono..format..formatting..DelayedFormat$LT$I$GT$$u20$as$u20$core..fmt..Display$GT$3fmt17h6294b5fbf012127bE
0000000000040490 l     F .text	00000000000001db              .hidden _ZN6chrono6format10formatting22DelayedFormat$LT$I$GT$15new_with_offset17hc2b3cb076b0947c0E
000000000003fa50 l     F .text	000000000000002f              .hidden _ZN6chrono6format10formatting22DelayedFormat$LT$I$GT$12format_fixed28_$u7b$$u7b$closure$u7d$$u7d$17h400aa324f0173b1dE
0000000000000000 l    df *ABS*	0000000000000000              dc40dglvgos8k7ivooykvvvj5
000000000001f9e8 l       .gcc_except_table	0000000000000000              GCC_except_table0
0000000000040c00 l     F .text	000000000000006b              _ZN4core3fmt5Write10write_char17h6c092f28757fb0baE
0000000000040de0 l     F .text	00000000000000a8              _ZN81_$LT$std..io..default_write_fmt..Adapter$LT$T$GT$$u20$as$u20$core..fmt..Write$GT$9write_str17h0f0332f16f0a094aE
0000000000040c70 l     F .text	000000000000000e              _ZN4core3fmt5Write9write_fmt17h794ab950556f59a9E
0000000000040c80 l     F .text	000000000000015f              _ZN75_$LT$$RF$mut$u20$W$u20$as$u20$core..fmt..Write..write_fmt..SpecWriteFmt$GT$14spec_write_fmt17hb8d6ddab26c0581aE
000000000001fa0c l       .gcc_except_table	0000000000000000              GCC_except_table4
0000000000040ac0 l     F .text	0000000000000138              .hidden _ZN3std2io17default_write_fmt17ha2c3d636a283b8b4E
0000000000000000 l    df *ABS*	0000000000000000              dovhpbsnen8hxcxtqmst15zb9
0000000000040e90 l     F .text	0000000000000012              .hidden _ZN6chrono5naive9internals3Mdf3day17h848d9475f443aecdE
0000000000040ec0 l     F .text	00000000000000b2              .hidden _ZN6chrono5naive9internals3Mdf7from_ol17h8c858d1810b3f52eE
0000000000040eb0 l     F .text	000000000000000f              .hidden _ZN6chrono5naive9internals3Mdf5month17h67764c8918cff3d3E
0000000000000000 l    df *ABS*	0000000000000000              dtdonc69xzxg5wylio59ni8qc
0000000000040f80 l     F .text	000000000000000c              .hidden _ZN2dp15static_dispatch17ha90454f18785b684E
0000000000000000 l    df *ABS*	0000000000000000              dw60usgn50zf7y035xhn0p0r1
0000000000040f90 l     F .text	000000000000022a              _ZN4core5slice4sort6shared5pivot11median3_rec17h17f27220b4018171E
00000000000411c0 l     F .text	000000000000026a              .hidden _ZN4core5slice4sort6shared5pivot12choose_pivot17h84289d5d38d712bfE
0000000000000000 l    df *ABS*	0000000000000000              edx16vsdwhow9bzw67nr3f272
0000000000041430 l     F .text	000000000000005c              .hidden _ZN81_$LT$core..str..iter..Chars$u20$as$u20$core..iter..traits..iterator..Iterator$GT$4next17h7ce3704c5ee524bdE
0000000000000000 l    df *ABS*	0000000000000000              ee5d1ow3tqim230jox0zvv16w
000000000001fa20 l       .gcc_except_table	0000000000000000              GCC_except_table0
000000000001fa44 l       .gcc_except_table	0000000000000000              GCC_except_table1
0000000000041490 l     F .text	00000000000000f0              .hidden _ZN3std2fs4File6create17hf74df641f289c01eE
0000000000041830 l     F .text	0000000000000154              .hidden _ZN3std2io5Write9write_fmt17h62c9e9d03c7305acE
0000000000041580 l     F .text	00000000000002af              .hidden _ZN3std2io5Write9write_all17hcf39897d17d14508E
0000000000000000 l    df *ABS*	0000000000000000              eeuhwklsht0lri5hvhjrb5vh3
0000000000041ce0 l     F .text	0000000000000059              _ZN4core5slice4sort6stable27AlignedStorage$LT$T$C$_$GT$19as_uninit_slice_mut17he4c53f93efd6ff21E
000000000001fa6c l       .gcc_except_table	0000000000000000              GCC_except_table0
0000000000041990 l     F .text	0000000000000344              .hidden _ZN4core5slice4sort6stable14driftsort_main17h6892e50a4e462c35E
0000000000000000 l    df *ABS*	0000000000000000              ef59z0n3w0tod99p07mnq8u82
0000000000041d40 l     F .text	0000000000000033              .hidden _ZN78_$LT$chrono..format..strftime..StrftimeItems$u20$as$u20$core..clone..Clone$GT$5clone17hfbb2ec92c3221f67E
0000000000000000 l    df *ABS*	0000000000000000              efb7wmvkwu21sg8uqr5oml7ns
0000000000000000 l    df *ABS*	0000000000000000              eildf1fu9qu2r21yddakm00yd
000000000001fa9c l       .gcc_except_table	0000000000000000              GCC_except_table0
0000000000041d80 l     F .text	000000000000007e              .hidden _ZN4core6result19Result$LT$T$C$E$GT$6expect17hec3c2ec6215f1dffE
0000000000000000 l    df *ABS*	0000000000000000              epp00wo7gpndl0sofjz2jcz9f
0000000000041e00 l     F .text	0000000000000011              _ZN4core4iter6traits8iterator8Iterator3map17h627b4ca1b57baabcE
0000000000041e20 l     F .text	00000000000000bc              .hidden _ZN4core4iter6traits8iterator8Iterator8flat_map17heae0e847c28b45b1E
0000000000000000 l    df *ABS*	0000000000000000              f3wy0o8u1jabd9blwebbirujy
000000000001faa8 l       .gcc_except_table	0000000000000000              GCC_except_table0
0000000000041ee0 l     F .text	0000000000000161              .hidden _ZN4core4char15CaseMappingIter3new17h65aff6cc12b320bfE
0000000000000000 l    df *ABS*	0000000000000000              a84yystbj965p88sj3x4rqfq0
0000000000000000 l    df *ABS*	0000000000000000              chrono.5536ef2a49ab4eeb-cgu.01
00000000000420c0 l     F .text	000000000000006b              _ZN3std3ffi6os_str103_$LT$impl$u20$core..convert..AsRef$LT$std..ffi..os_str..OsStr$GT$$u20$for$u20$alloc..string..String$GT$6as_ref17h38fa74322656a339E
00000000000427c0 l     F .text	0000000000000056              _ZN68_$LT$core..num..error..ParseIntError$u20$as$u20$core..fmt..Debug$GT$3fmt17hd34a32fa1a16c410E
000000000001facc l       .gcc_except_table	0000000000000000              GCC_except_table12
0000000000042510 l     F .text	0000000000000132              _ZN5alloc6string6String4push17hfadf10cbd0427e0eE
00000000000426c0 l     F .text	000000000000004a              _ZN5alloc6string6String8push_str17hc388787b0590a44fE
0000000000042650 l     F .text	0000000000000061              _ZN5alloc6string6String6as_str17h5ea297c4b88195e1E
000000000001fadc l       .gcc_except_table	0000000000000000              GCC_except_table42
000000000001faf4 l       .gcc_except_table	0000000000000000              GCC_except_table43
000000000001fb0c l       .gcc_except_table	0000000000000000              GCC_except_table44
0000000000042130 l     F .text	000000000000000c              .hidden _ZN3std4path95_$LT$impl$u20$core..convert..AsRef$LT$std..path..Path$GT$$u20$for$u20$alloc..string..String$GT$6as_ref17h01e40425f1c5d6bcE
0000000000042710 l     F .text	0000000000000078              .hidden _ZN60_$LT$alloc..string..String$u20$as$u20$core..fmt..Display$GT$3fmt17hf70c879a44f59579E
0000000000042310 l     F .text	00000000000000b9              .hidden _ZN4core5alloc6layout6Layout25from_size_align_unchecked18precondition_check17h96c4445b1a31a47eE
00000000000423d0 l     F .text	00000000000000d7              .hidden _ZN4core9ub_checks23maybe_is_nonoverlapping7runtime17h8f7526d71daf5edcE
00000000000424b0 l     F .text	0000000000000022              .hidden _ZN58_$LT$alloc..string..String$u20$as$u20$core..fmt..Write$GT$10write_char17he04396b23fffec23E
00000000000424e0 l     F .text	0000000000000027              .hidden _ZN58_$LT$alloc..string..String$u20$as$u20$core..fmt..Write$GT$9write_str17h47ae67b2d2c82e93E
0000000000042790 l     F .text	000000000000000c              .hidden _ZN65_$LT$alloc..string..String$u20$as$u20$core..ops..deref..Deref$GT$5deref17h0029434ca5e957ddE
00000000000427a0 l     F .text	0000000000000016              .hidden _ZN66_$LT$core..cell..BorrowRefMut$u20$as$u20$core..ops..drop..Drop$GT$4drop17h86c00ba8530d1fdaE
0000000000000000 l    df *ABS*	0000000000000000              chrono.5536ef2a49ab4eeb-cgu.00
0000000000042ea0 l     F .text	0000000000000a62              _ZN4core3str7pattern13simd_contains17haef69112aabe6a16E
0000000000044ac0 l     F .text	00000000000002df              _ZN4core3str7pattern14small_slice_eq17hc10e3e01a6a94b65E
0000000000045c90 l     F .text	000000000000001d              _ZN89_$LT$core..str..pattern..RejectAndMatch$u20$as$u20$core..str..pattern..TwoWayStrategy$GT$9rejecting17hb3881e96974c1e79E
0000000000045c60 l     F .text	0000000000000005              _ZN89_$LT$core..str..pattern..RejectAndMatch$u20$as$u20$core..str..pattern..TwoWayStrategy$GT$16use_early_reject17h425143c04db5a760E
0000000000045c70 l     F .text	000000000000001d              _ZN89_$LT$core..str..pattern..RejectAndMatch$u20$as$u20$core..str..pattern..TwoWayStrategy$GT$8matching17h4ac61d018c49de3bE
0000000000045c40 l     F .text	0000000000000015              _ZN84_$LT$core..str..pattern..MatchOnly$u20$as$u20$core..str..pattern..TwoWayStrategy$GT$9rejecting17h740739243fb0faedE
0000000000045c10 l     F .text	0000000000000005              _ZN84_$LT$core..str..pattern..MatchOnly$u20$as$u20$core..str..pattern..TwoWayStrategy$GT$16use_early_reject17h77ec98cce09cee18E
0000000000045c20 l     F .text	000000000000001d              _ZN84_$LT$core..str..pattern..MatchOnly$u20$as$u20$core..str..pattern..TwoWayStrategy$GT$8matching17h946f91229a06129cE
00000000000452e0 l     F .text	00000000000002c0              _ZN55_$LT$$RF$str$u20$as$u20$core..str..pattern..Pattern$GT$15is_contained_in17hdb5347d5732e87cfE
00000000000455a0 l     F .text	000000000000016b              _ZN80_$LT$core..str..pattern..StrSearcher$u20$as$u20$core..str..pattern..Searcher$GT$10next_match17hc9e4b7c46efc59d5E
0000000000045710 l     F .text	00000000000004f9              _ZN80_$LT$core..str..pattern..StrSearcher$u20$as$u20$core..str..pattern..Searcher$GT$4next17ha0c0f88cb73ba7c7E
000000000001fb24 l       .gcc_except_table	0000000000000000              GCC_except_table33
000000000001fb30 l       .gcc_except_table	0000000000000000              GCC_except_table34
000000000001fb3c l       .gcc_except_table	0000000000000000              GCC_except_table35
000000000001fb48 l       .gcc_except_table	0000000000000000              GCC_except_table36
000000000001fb54 l       .gcc_except_table	0000000000000000              GCC_except_table37
000000000001fb60 l       .gcc_except_table	0000000000000000              GCC_except_table38
000000000001fb6c l       .gcc_except_table	0000000000000000              GCC_except_table39
000000000001fb78 l       .gcc_except_table	0000000000000000              GCC_except_table40
0000000000045160 l     F .text	000000000000008f              .hidden _ZN52_$LT$char$u20$as$u20$core..str..pattern..Pattern$GT$12is_suffix_of17h132b80f03b3290d1E
00000000000451f0 l     F .text	00000000000000ed              .hidden _ZN52_$LT$char$u20$as$u20$core..str..pattern..Pattern$GT$15is_contained_in17hca3a89ae725a12abE
0000000000000000 l    df *ABS*	0000000000000000              chrono.5536ef2a49ab4eeb-cgu.02
000000000001fb84 l       .gcc_except_table	0000000000000000              GCC_except_table4
000000000001fb98 l       .gcc_except_table	0000000000000000              GCC_except_table5
000000000001fbac l       .gcc_except_table	0000000000000000              GCC_except_table8
0000000000048ed0 l     F .text	0000000000000085              _ZN64_$LT$core..str..error..Utf8Error$u20$as$u20$core..fmt..Debug$GT$3fmt17h7bf23786703eed35E
0000000000046610 l     F .text	0000000000000088              _ZN4core3fmt3num52_$LT$impl$u20$core..fmt..Debug$u20$for$u20$usize$GT$3fmt17h186bb6e7cbac2f8eE
00000000000466d0 l     F .text	00000000000005b6              _ZN4core3num20_$LT$impl$u20$u8$GT$16from_ascii_radix17h10e3153904d1af90E
0000000000046f50 l     F .text	0000000000000a16              _ZN4core3num21_$LT$impl$u20$i32$GT$16from_ascii_radix17h0efc20316f2b7000E
0000000000047ca0 l     F .text	00000000000005cc              _ZN4core3num21_$LT$impl$u20$u16$GT$16from_ascii_radix17h66d97ecfeb9dde51E
00000000000485c0 l     F .text	0000000000000019              _ZN4core3ops8function6FnOnce9call_once17h63a5a24d8c8b1ab0E
000000000001fbc0 l       .gcc_except_table	0000000000000000              GCC_except_table52
000000000001fbcc l       .gcc_except_table	0000000000000000              GCC_except_table63
000000000001fbe4 l       .gcc_except_table	0000000000000000              GCC_except_table70
000000000001fbfc l       .gcc_except_table	0000000000000000              GCC_except_table78
000000000001fc18 l       .gcc_except_table	0000000000000000              GCC_except_table81
000000000001fc30 l       .gcc_except_table	0000000000000000              GCC_except_table82
000000000001fc48 l       .gcc_except_table	0000000000000000              GCC_except_table84
000000000001fc6c l       .gcc_except_table	0000000000000000              GCC_except_table92
000000000001fc84 l       .gcc_except_table	0000000000000000              GCC_except_table95
000000000001fc9c l       .gcc_except_table	0000000000000000              GCC_except_table96
000000000001fcb4 l       .gcc_except_table	0000000000000000              GCC_except_table98
000000000001fccc l       .gcc_except_table	0000000000000000              GCC_except_table100
000000000001fce0 l       .gcc_except_table	0000000000000000              GCC_except_table101
000000000001fcfc l       .gcc_except_table	0000000000000000              GCC_except_table109
0000000000046c90 l     F .text	000000000000004e              .hidden _ZN4core3num20_$LT$impl$u20$u8$GT$19is_ascii_alphabetic17h9a0a81a803798572E
00000000000466a0 l     F .text	0000000000000030              .hidden _ZN4core3num20_$LT$impl$u20$u8$GT$14is_ascii_digit17h0498b35fd5e2d77fE
0000000000047b50 l     F .text	000000000000005f              .hidden _ZN4core3num21_$LT$impl$u20$i64$GT$11checked_add17h76cbd8b3d1c652a0E
0000000000048290 l     F .text	00000000000000aa              .hidden _ZN4core3num23_$LT$impl$u20$usize$GT$13unchecked_add18precondition_check17h823536ecacae1909E
0000000000048340 l     F .text	00000000000000a1              .hidden _ZN4core3num23_$LT$impl$u20$usize$GT$13unchecked_sub18precondition_check17h947d381a49d88a2aE
0000000000046ce0 l     F .text	00000000000000e9              .hidden _ZN4core3num21_$LT$impl$u20$i32$GT$10div_euclid17h1333a857f5037ea3E
0000000000046dd0 l     F .text	00000000000000af              .hidden _ZN4core3num21_$LT$impl$u20$i32$GT$10rem_euclid17h454210b271b3e54dE
0000000000046e80 l     F .text	0000000000000051              .hidden _ZN4core3num21_$LT$impl$u20$i32$GT$11checked_add17h776a80bb7d1465ecE
0000000000046ee0 l     F .text	0000000000000023              .hidden _ZN4core3num21_$LT$impl$u20$i32$GT$13from_be_bytes17h9b7b5fe7afeaeffcE
0000000000046f10 l     F .text	0000000000000039              .hidden _ZN4core3num21_$LT$impl$u20$i32$GT$14saturating_abs17h92c7716a15e8482eE
0000000000047970 l     F .text	000000000000010f              .hidden _ZN4core3num21_$LT$impl$u20$i64$GT$10div_euclid17h4a25bbdc7e740cb0E
0000000000047a80 l     F .text	00000000000000cf              .hidden _ZN4core3num21_$LT$impl$u20$i64$GT$10rem_euclid17h9a3224261f3d00aaE
0000000000047bb0 l     F .text	000000000000005f              .hidden _ZN4core3num21_$LT$impl$u20$i64$GT$11checked_sub17ha82bbb2c74a38f87E
0000000000047c10 l     F .text	000000000000002c              .hidden _ZN4core3num21_$LT$impl$u20$i64$GT$13from_be_bytes17hf4dfc131ecbcf37eE
0000000000047c40 l     F .text	000000000000005a              .hidden _ZN4core3num21_$LT$impl$u20$i64$GT$3abs17habd6f1c8cfd82109E
0000000000048270 l     F .text	000000000000001f              .hidden _ZN4core3num21_$LT$impl$u20$u32$GT$13from_be_bytes17h66a880b3fd96a412E
00000000000483f0 l     F .text	0000000000000024              .hidden _ZN4core3num59_$LT$impl$u20$core..str..traits..FromStr$u20$for$u20$u8$GT$8from_str17h29507cc0c46d9d1cE
0000000000048420 l     F .text	0000000000000037              .hidden _ZN4core3num60_$LT$impl$u20$core..str..traits..FromStr$u20$for$u20$i32$GT$8from_str17hbfc003cfe5213803E
0000000000048460 l     F .text	0000000000000035              .hidden _ZN4core3num60_$LT$impl$u20$core..str..traits..FromStr$u20$for$u20$u16$GT$8from_str17haff3bbe9a7c99256E
00000000000484a0 l     F .text	000000000000001f              .hidden _ZN4core3ops8function2Fn4call17h2aaa7e8d75faf9d0E
00000000000484c0 l     F .text	000000000000001f              .hidden _ZN4core3ops8function2Fn4call17h68850f5e22f06b11E
00000000000484e0 l     F .text	000000000000001d              .hidden _ZN4core3ops8function5FnMut8call_mut17h046ad1ae9475abe4E
0000000000048500 l     F .text	000000000000001d              .hidden _ZN4core3ops8function5FnMut8call_mut17h2e77292dbdec91ddE
0000000000048520 l     F .text	000000000000001b              .hidden _ZN4core3ops8function6FnOnce9call_once17h12c9c4cd0183c297E
0000000000048540 l     F .text	000000000000001c              .hidden _ZN4core3ops8function6FnOnce9call_once17h12ddea48c114bd2cE
0000000000048560 l     F .text	000000000000001b              .hidden _ZN4core3ops8function6FnOnce9call_once17h1bb8d1491840c49dE
0000000000048580 l     F .text	000000000000001c              .hidden _ZN4core3ops8function6FnOnce9call_once17h4288e4b6e6d25a9dE
00000000000485a0 l     F .text	000000000000001b              .hidden _ZN4core3ops8function6FnOnce9call_once17h5f59e9842cf8ef0cE
00000000000485e0 l     F .text	0000000000000041              .hidden _ZN4core3ops8function6FnOnce9call_once17hd0ba4574f412b837E
0000000000048630 l     F .text	000000000000002f              .hidden _ZN4core3ops8function6FnOnce9call_once17hfbed9242bb6033e2E
0000000000049030 l     F .text	0000000000000018              .hidden _ZN6chrono5naive8datetime13NaiveDateTime3new17ha93c5bf7627488efE
0000000000049050 l     F .text	0000000000000008              .hidden _ZN6chrono5naive8datetime13NaiveDateTime4date17h8be6112c9e71fbb5E
0000000000049060 l     F .text	000000000000000c              .hidden _ZN6chrono5naive8datetime13NaiveDateTime4time17ha36eb90cb050c22cE
00000000000490b0 l     F .text	000000000000005b              .hidden _ZN76_$LT$std..sys..pal..unix..time..Timespec$u20$as$u20$core..cmp..PartialEq$GT$2eq17h2f9bf28642777860E
0000000000049110 l     F .text	000000000000000c              .hidden _ZN83_$LT$chrono..naive..datetime..NaiveDateTime$u20$as$u20$chrono..traits..Datelike$GT$3day17h7b2427910c38da30E
0000000000049120 l     F .text	000000000000000c              .hidden _ZN83_$LT$chrono..naive..datetime..NaiveDateTime$u20$as$u20$chrono..traits..Datelike$GT$4year17h4a8c61faf9a98f22E
0000000000049130 l     F .text	000000000000000c              .hidden _ZN83_$LT$chrono..naive..datetime..NaiveDateTime$u20$as$u20$chrono..traits..Datelike$GT$6month017h44a64a53256253e1E
0000000000049140 l     F .text	000000000000000c              .hidden _ZN83_$LT$chrono..naive..datetime..NaiveDateTime$u20$as$u20$chrono..traits..Datelike$GT$7weekday17he1418308c3e35b79E
0000000000049150 l     F .text	0000000000000010              .hidden _ZN83_$LT$chrono..naive..datetime..NaiveDateTime$u20$as$u20$chrono..traits..Timelike$GT$10nanosecond17hafcca075999af9c8E
0000000000000000 l    df *ABS*	0000000000000000              chrono.5536ef2a49ab4eeb-cgu.03
000000000001fd08 l       .gcc_except_table	0000000000000000              GCC_except_table2
000000000001fd14 l       .gcc_except_table	0000000000000000              GCC_except_table4
0000000000049830 l     F .text	00000000000002a3              _ZN6chrono6offset5local7tz_info4rule10parse_name17hc34b0297b8df8356E
0000000000049b00 l     F .text	0000000000000add              _ZN6chrono6offset5local7tz_info4rule11UtcDateTime13from_timespec17he0fefb745498fc2fE
000000000004a5e0 l     F .text	00000000000000c3              _ZN6chrono6offset5local7tz_info4rule12is_leap_year17h68de2229e4638815E
000000000004a6b0 l     F .text	000000000000034c              _ZN6chrono6offset5local7tz_info4rule12parse_hhmmss17ha47af6f0f68239f1E
000000000004aa00 l     F .text	00000000000002c6              _ZN6chrono6offset5local7tz_info4rule12parse_offset17hf5f840f1fb4089dcE
000000000004d470 l     F .text	0000000000000229              _ZN6chrono6offset5local7tz_info4rule19parse_signed_hhmmss17hd37ca5dedde294a9E
000000000004acd0 l     F .text	00000000000006bb              _ZN6chrono6offset5local7tz_info4rule13AlternateTime20find_local_time_type17h203a5b22f5fdbc02E
000000000004f500 l     F .text	0000000000000084              _ZN6chrono6offset5local7tz_info4rule7RuleDay9unix_time17h0fb94cfa2db712abE
000000000004b390 l     F .text	0000000000000ff8              _ZN6chrono6offset5local7tz_info4rule13AlternateTime31find_local_time_type_from_local17hcd6be3b8302e2559E
000000000004e0c0 l     F .text	000000000000090e              _ZN6chrono6offset5local7tz_info4rule7RuleDay15transition_date17h92fca947de072302E
000000000004c390 l     F .text	0000000000000122              _ZN6chrono6offset5local7tz_info4rule13AlternateTime3new17h022840dff388620eE
000000000004e9d0 l     F .text	0000000000000a16              _ZN6chrono6offset5local7tz_info4rule7RuleDay5parse17h765b4c2f63d6f290E
000000000004d1e0 l     F .text	0000000000000289              _ZN6chrono6offset5local7tz_info4rule15parse_rule_time17h17325d65741f13f1E
000000000004d6a0 l     F .text	00000000000005f3              _ZN6chrono6offset5local7tz_info4rule21days_since_unix_epoch17h333ecf48cbd8026dE
000000000004dca0 l     F .text	00000000000002c6              _ZN6chrono6offset5local7tz_info4rule24parse_rule_time_extended17h2617793e265a7a46E
000000000004df70 l     F .text	0000000000000147              _ZN6chrono6offset5local7tz_info4rule7RuleDay13month_weekday17h9f09b51dbad9408bE
000000000004f470 l     F .text	000000000000008c              _ZN6chrono6offset5local7tz_info4rule7RuleDay8julian_117h9d8a741eef93760eE
000000000004f3f0 l     F .text	000000000000007c              _ZN6chrono6offset5local7tz_info4rule7RuleDay8julian_017h2a66bb19d733971eE
0000000000049570 l     F .text	00000000000000c6              .hidden _ZN4core3str6traits108_$LT$impl$u20$core..slice..index..SliceIndex$LT$str$GT$$u20$for$u20$core..ops..range..Range$LT$usize$GT$$GT$13get_unchecked18precondition_check17h79479f05fcfef406E
00000000000497e0 l     F .text	0000000000000008              .hidden _ZN6chrono6offset5fixed11FixedOffset15local_minus_utc17h27750421728a6ec0E
0000000000049ae0 l     F .text	0000000000000018              .hidden _ZN6chrono6offset5local7tz_info4rule10parse_name28_$u7b$$u7b$closure$u7d$$u7d$17h9de8d109888e05aeE
000000000004c4c0 l     F .text	0000000000000bc4              .hidden _ZN6chrono6offset5local7tz_info4rule14TransitionRule14from_tz_string17hbea0708782e49d7bE
000000000004d090 l     F .text	0000000000000074              .hidden _ZN6chrono6offset5local7tz_info4rule14TransitionRule20find_local_time_type17hc9d5a56473253c23E
000000000004d110 l     F .text	00000000000000c7              .hidden _ZN6chrono6offset5local7tz_info4rule14TransitionRule31find_local_time_type_from_local17he67fc4b683ee69c4E
0000000000000000 l    df *ABS*	0000000000000000              chrono.5536ef2a49ab4eeb-cgu.04
0000000000051ab0 l     F .text	0000000000000024              _ZN62_$LT$std..time..SystemTime$u20$as$u20$core..cmp..PartialEq$GT$2eq17haad844598a3d50a5E
0000000000050b10 l     F .text	0000000000000135              _ZN4core3str6traits110_$LT$impl$u20$core..slice..index..SliceIndex$LT$str$GT$$u20$for$u20$core..ops..range..RangeTo$LT$usize$GT$$GT$3get17h5e82bd3b140b3a1fE
000000000001fd24 l       .gcc_except_table	0000000000000000              GCC_except_table62
000000000001fd34 l       .gcc_except_table	0000000000000000              GCC_except_table63
000000000001fd40 l       .gcc_except_table	0000000000000000              GCC_except_table64
000000000001fd4c l       .gcc_except_table	0000000000000000              GCC_except_table66
000000000001fd5c l       .gcc_except_table	0000000000000000              GCC_except_table67
000000000001fd6c l       .gcc_except_table	0000000000000000              GCC_except_table72
0000000000051700 l     F .text	00000000000000a1              _ZN4core5slice29_$LT$impl$u20$$u5b$T$u5d$$GT$18split_at_unchecked18precondition_check17h19c17a86f51572e0E
000000000001fd84 l       .gcc_except_table	0000000000000000              GCC_except_table75
000000000001fd94 l       .gcc_except_table	0000000000000000              GCC_except_table76
0000000000050ce0 l     F .text	0000000000000134              .hidden _ZN4core3str6traits112_$LT$impl$u20$core..slice..index..SliceIndex$LT$str$GT$$u20$for$u20$core..ops..range..RangeFrom$LT$usize$GT$$GT$3get17he3dafdba635026aaE
0000000000050c50 l     F .text	000000000000008e              .hidden _ZN4core3str6traits110_$LT$impl$u20$core..slice..index..SliceIndex$LT$str$GT$$u20$for$u20$core..ops..range..RangeTo$LT$usize$GT$$GT$5index17h205dbd206fc8598aE
0000000000051af0 l     F .text	0000000000000045              .hidden _ZN63_$LT$std..time..SystemTimeError$u20$as$u20$core..fmt..Debug$GT$3fmt17h6ee60684fd6dc1f0E
000000000004fde0 l     F .text	00000000000000b7              .hidden _ZN4core3fmt2rt8Argument10from_usize17h01e2e76040e5a057E
0000000000000000 l    df *ABS*	0000000000000000              chrono.5536ef2a49ab4eeb-cgu.05
000000000001fda4 l       .gcc_except_table	0000000000000000              GCC_except_table8
000000000001fdb0 l       .gcc_except_table	0000000000000000              GCC_except_table9
000000000001fdbc l       .gcc_except_table	0000000000000000              GCC_except_table10
000000000001fdcc l       .gcc_except_table	0000000000000000              GCC_except_table11
000000000001fddc l       .gcc_except_table	0000000000000000              GCC_except_table14
000000000001fdec l       .gcc_except_table	0000000000000000              GCC_except_table84
000000000001fe00 l       .gcc_except_table	0000000000000000              GCC_except_table85
000000000001fe14 l       .gcc_except_table	0000000000000000              GCC_except_table86
000000000001fe28 l       .gcc_except_table	0000000000000000              GCC_except_table87
000000000001fe3c l       .gcc_except_table	0000000000000000              GCC_except_table88
0000000000051cd0 l     F .text	000000000000009b              .hidden _ZN4core3ptr8non_null16NonNull$LT$T$GT$13new_unchecked18precondition_check17h01d0b46680a6423dE
0000000000052d20 l     F .text	0000000000000012              .hidden _ZN94_$LT$std..io..error..Error$u20$as$u20$core..convert..From$LT$std..io..error..ErrorKind$GT$$GT$4from17h38e83acefa384f07E
0000000000000000 l    df *ABS*	0000000000000000              chrono.5536ef2a49ab4eeb-cgu.06
000000000001fe50 l       .gcc_except_table	0000000000000000              GCC_except_table3
000000000001fe68 l       .gcc_except_table	0000000000000000              GCC_except_table5
000000000001fe78 l       .gcc_except_table	0000000000000000              GCC_except_table6
000000000001fe88 l       .gcc_except_table	0000000000000000              GCC_except_table7
000000000001fe9c l       .gcc_except_table	0000000000000000              GCC_except_table8
000000000001feb0 l       .gcc_except_table	0000000000000000              GCC_except_table9
000000000001fec4 l       .gcc_except_table	0000000000000000              GCC_except_table10
000000000001fed8 l       .gcc_except_table	0000000000000000              GCC_except_table11
000000000001fee8 l       .gcc_except_table	0000000000000000              GCC_except_table17
000000000001fef4 l       .gcc_except_table	0000000000000000              GCC_except_table18
000000000001ff04 l       .gcc_except_table	0000000000000000              GCC_except_table19
0000000000053910 l     F .text	000000000000026d              _ZN5alloc5alloc6Global10alloc_impl17h5fc2cc1ab3acb843E
000000000001ff18 l       .gcc_except_table	0000000000000000              GCC_except_table33
000000000001ff24 l       .gcc_except_table	0000000000000000              GCC_except_table34
000000000001ff30 l       .gcc_except_table	0000000000000000              GCC_except_table35
000000000001ff3c l       .gcc_except_table	0000000000000000              GCC_except_table36
0000000000053820 l     F .text	0000000000000009              .hidden _ZN4core4time8Duration7as_secs17hf157b8da9d9efd8fE
0000000000053810 l     F .text	0000000000000009              .hidden _ZN4core4time8Duration12subsec_nanos17hf11927d0237908eaE
0000000000053860 l     F .text	00000000000000a3              .hidden _ZN5alloc5alloc15exchange_malloc17hdaca7e2b0e341856E
0000000000053ba0 l     F .text	0000000000000080              .hidden _ZN63_$LT$alloc..alloc..Global$u20$as$u20$core..alloc..Allocator$GT$10deallocate17hd274a275fd1d535eE
0000000000000000 l    df *ABS*	0000000000000000              chrono.5536ef2a49ab4eeb-cgu.07
0000000000054710 l     F .text	000000000000000f              _ZN6chrono5naive4date9NaiveDate4year17h1b80ff05b26896adE
00000000000546c0 l     F .text	0000000000000038              _ZN6chrono5naive4date9NaiveDate3mdf17ha48487ed940029f0E
0000000000054e30 l     F .text	000000000000000f              _ZN6chrono5naive9internals3Mdf5month17h5e622122cf5d46a0E
0000000000054d90 l     F .text	0000000000000012              _ZN6chrono5naive9internals3Mdf3day17h3ab1e763056c1478E
0000000000054750 l     F .text	0000000000000014              _ZN6chrono5naive4date9NaiveDate7ordinal17h1f92eabb8935e5deE
0000000000054170 l     F .text	000000000000000f              _ZN6chrono5naive4date9NaiveDate10year_flags17ha49cf973f800da44E
0000000000054700 l     F .text	000000000000000f              _ZN6chrono5naive4date9NaiveDate3yof17h43b0fc11ab23d7cbE
0000000000054720 l     F .text	0000000000000021              _ZN6chrono5naive4date9NaiveDate5month17h28a14918c491e3bcE
0000000000054690 l     F .text	0000000000000021              _ZN6chrono5naive4date9NaiveDate3day17hc0bceb0305e94218E
0000000000054db0 l     F .text	0000000000000079              _ZN6chrono5naive9internals3Mdf3new17h0b256c7611ab4aaaE
0000000000054910 l     F .text	0000000000000091              _ZN6chrono5naive4date9NaiveDate8from_yof17h8261d8dda9bc3c01E
0000000000054f50 l     F .text	0000000000000043              _ZN6chrono5naive9internals9YearFlags17from_year_mod_40017he926a8992b8ffccaE
0000000000054e40 l     F .text	00000000000000b2              _ZN6chrono5naive9internals3Mdf7from_ol17h4ddff336e4c940f8E
0000000000054cd0 l     F .text	00000000000000b4              _ZN6chrono5naive9internals3Mdf17ordinal_and_flags17hf0c5580b2cbddb0fE
0000000000054f00 l     F .text	000000000000004e              .hidden _ZN6chrono5naive9internals9YearFlags13isoweek_delta17h4714250927ee3600E
0000000000054fd0 l     F .text	0000000000000063              .hidden _ZN6chrono5naive9internals9YearFlags9nisoweeks17hf42f1c2a68408690E
0000000000054fa0 l     F .text	0000000000000022              .hidden _ZN6chrono5naive9internals9YearFlags9from_year17h6c0c9dc737db4844E
0000000000053cd0 l     F .text	00000000000000c6              .hidden _ZN106_$LT$core..ops..range..Range$LT$usize$GT$$u20$as$u20$core..slice..index..SliceIndex$LT$$u5b$T$u5d$$GT$$GT$13get_unchecked18precondition_check17hf693a21f481455aaE
00000000000549b0 l     F .text	00000000000000aa              .hidden _ZN6chrono5naive4date9NaiveDate8pred_opt17h536fc3dc7dfcde29E
0000000000054a60 l     F .text	00000000000000a7              .hidden _ZN6chrono5naive4date9NaiveDate8succ_opt17h4b5c49f6d6575855E
00000000000551d0 l     F .text	000000000000000c              .hidden _ZN75_$LT$chrono..naive..date..NaiveDate$u20$as$u20$chrono..traits..Datelike$GT$3day17h5b92670adafa554eE
00000000000551e0 l     F .text	000000000000000c              .hidden _ZN75_$LT$chrono..naive..date..NaiveDate$u20$as$u20$chrono..traits..Datelike$GT$4year17hd508cd999065a864E
0000000000055200 l     F .text	0000000000000032              .hidden _ZN75_$LT$chrono..naive..date..NaiveDate$u20$as$u20$chrono..traits..Datelike$GT$6month017h172e9483f24560f6E
0000000000054770 l     F .text	00000000000000e9              .hidden _ZN6chrono5naive4date9NaiveDate7weekday17h4f89a71564220fb5E
0000000000054b10 l     F .text	0000000000000009              .hidden _ZN6chrono5naive4time9NaiveTime10nanosecond17h32dd9c069c28be79E
0000000000055240 l     F .text	0000000000000020              .hidden _ZN75_$LT$chrono..naive..time..NaiveTime$u20$as$u20$chrono..traits..Timelike$GT$4hour17he370b3579bb73401E
0000000000055260 l     F .text	00000000000000a1              .hidden _ZN75_$LT$usize$u20$as$u20$core..slice..index..SliceIndex$LT$$u5b$T$u5d$$GT$$GT$13get_unchecked18precondition_check17h4dee65e5336fa810E
0000000000053de0 l     F .text	00000000000000a0              .hidden _ZN4core4hint16assert_unchecked18precondition_check17h1c941f1e73f019c7E
0000000000053da0 l     F .text	0000000000000040              .hidden _ZN49_$LT$usize$u20$as$u20$core..iter..range..Step$GT$18backward_unchecked17h12c2445a19b866c3E
00000000000551f0 l     F .text	000000000000000c              .hidden _ZN75_$LT$chrono..naive..date..NaiveDate$u20$as$u20$chrono..traits..Datelike$GT$5month17h65fb58296ce625d0E
0000000000054860 l     F .text	0000000000000028              .hidden _ZN6chrono5naive4date9NaiveDate8and_time17h05a46f753390b614E
0000000000053c20 l     F .text	00000000000000a1              .hidden _ZN104_$LT$core..ops..index_range..IndexRange$u20$as$u20$core..slice..index..SliceIndex$LT$$u5b$T$u5d$$GT$$GT$17get_unchecked_mut18precondition_check17hd0659fbf998d1a51E
0000000000053e80 l     F .text	0000000000000083              .hidden _ZN4core4hint21unreachable_unchecked18precondition_check17h136affcd122ef0a7E
0000000000054bd0 l     F .text	0000000000000008              .hidden _ZN6chrono5naive4time9NaiveTime25num_seconds_from_midnight17h0f12bb8b7417afc9E
0000000000054be0 l     F .text	000000000000007a              .hidden _ZN6chrono5naive4time9NaiveTime34from_num_seconds_from_midnight_opt17h5df11211b31ed080E
00000000000551b0 l     F .text	0000000000000012              .hidden _ZN6chrono7weekday7Weekday20num_days_from_sunday17hec4658f4e644341fE
0000000000000000 l    df *ABS*	0000000000000000              chrono.5536ef2a49ab4eeb-cgu.08
000000000001ff48 l       .gcc_except_table	0000000000000000              GCC_except_table2
000000000001ff5c l       .gcc_except_table	0000000000000000              GCC_except_table3
000000000001ff70 l       .gcc_except_table	0000000000000000              GCC_except_table4
000000000001ff80 l       .gcc_except_table	0000000000000000              GCC_except_table5
0000000000056dd0 l     F .text	00000000000000f8              _ZN6chrono6offset5local5inner6offset28_$u7b$$u7b$closure$u7d$$u7d$17hf909a7b926dd03c0E
000000000001ff90 l       .gcc_except_table	0000000000000000              GCC_except_table9
000000000001ffa0 l       .gcc_except_table	0000000000000000              GCC_except_table21
000000000001ffb4 l       .gcc_except_table	0000000000000000              GCC_except_table22
000000000001ffc8 l       .gcc_except_table	0000000000000000              GCC_except_table23
000000000001ffd4 l       .gcc_except_table	0000000000000000              GCC_except_table24
000000000001ffe0 l       .gcc_except_table	0000000000000000              GCC_except_table25
0000000000020008 l       .gcc_except_table	0000000000000000              GCC_except_table26
0000000000059720 l     F .text	000000000000001e              _ZN6chrono6offset5local7tz_info6parser5parse28_$u7b$$u7b$closure$u7d$$u7d$17h185aeff4edd42494E
0000000000056080 l     F .text	00000000000000cb              _ZN5alloc3fmt6format17h3de0073d2ef78e7bE
0000000000056230 l     F .text	0000000000000079              _ZN6chrono6offset5local5inner12current_zone17h84bbe1f0954546d1E
0000000000020030 l       .gcc_except_table	0000000000000000              GCC_except_table40
00000000000565e0 l     F .text	0000000000000022              _ZN6chrono6offset5local5inner24offset_from_utc_datetime17h2b4d11a309da60eaE
0000000000056d90 l     F .text	0000000000000036              _ZN6chrono6offset5local5inner6offset17he2a5594388d83923E
0000000000056610 l     F .text	00000000000004bd              _ZN6chrono6offset5local5inner5Cache6offset17h9d59bb0db24e6e45E
0000000000056b00 l     F .text	000000000000021f              _ZN6chrono6offset5local5inner6Source3new17h61c43b0c7a5e8872E
0000000000020070 l       .gcc_except_table	0000000000000000              GCC_except_table43
00000000000200b0 l       .gcc_except_table	0000000000000000              GCC_except_table45
00000000000200dc l       .gcc_except_table	0000000000000000              GCC_except_table46
00000000000200f4 l       .gcc_except_table	0000000000000000              GCC_except_table48
0000000000000020 l       .tbss	00000000000000a8              _ZN6chrono6offset5local5inner7TZ_INFO29_$u7b$$u7b$constant$u7d$$u7d$28_$u7b$$u7b$closure$u7d$$u7d$3VAL17h51570b41c236aebaE
0000000000056f30 l     F .text	00000000000000c3              _ZN6chrono6offset5local7tz_info6parser11read_be_i3217he9705e00e47913aeE
0000000000057000 l     F .text	00000000000000cc              _ZN6chrono6offset5local7tz_info6parser11read_be_i6417hd6501b45e1d715edE
00000000000570d0 l     F .text	00000000000001d8              _ZN6chrono6offset5local7tz_info6parser5State10parse_time17hb38ecca122c976f8E
00000000000572b0 l     F .text	0000000000000780              _ZN6chrono6offset5local7tz_info6parser5State3new17hdbc56e68f184f842E
000000000005a460 l     F .text	00000000000007d6              _ZN6chrono6offset5local7tz_info6parser6Header3new17hca8c2f7eba1ed599E
000000000005a450 l     F .text	000000000000000d              _ZN6chrono6offset5local7tz_info6parser6Cursor9remaining17hb31269f657349e52E
000000000005ae70 l     F .text	0000000000000023              _ZN88_$LT$chrono..offset..local..tz_info..parser..Version$u20$as$u20$core..cmp..PartialEq$GT$2eq17h34e6f9fa02889340E
0000000000020118 l       .gcc_except_table	0000000000000000              GCC_except_table55
00000000000201b8 l       .gcc_except_table	0000000000000000              GCC_except_table60
00000000000201c8 l       .gcc_except_table	0000000000000000              GCC_except_table61
0000000000059b00 l     F .text	00000000000000e7              _ZN6chrono6offset5local7tz_info6parser6Cursor10read_while17hb2badb3ddca7cccdE
00000000000201d8 l       .gcc_except_table	0000000000000000              GCC_except_table62
0000000000059c30 l     F .text	00000000000000e2              _ZN6chrono6offset5local7tz_info6parser6Cursor11read_be_u3217h9a3f814de9a68e18E
00000000000201e8 l       .gcc_except_table	0000000000000000              GCC_except_table82
0000000000059760 l     F .text	000000000000002f              .hidden _ZN6chrono6offset5local7tz_info6parser5parse28_$u7b$$u7b$closure$u7d$$u7d$17hfe77af7f24fb1267E
0000000000055660 l     F .text	0000000000000182              .hidden _ZN4core3fmt9Formatter9write_fmt17h824ef37b8e85c22bE
0000000000055510 l     F .text	000000000000004b              .hidden _ZN4core3fmt2rt38_$LT$impl$u20$core..fmt..Arguments$GT$16new_v1_formatted17h8441d72967d5a070E
00000000000562b0 l     F .text	0000000000000326              .hidden _ZN6chrono6offset5local5inner17fallback_timezone17h4309c84a90e4de59E
0000000000056f10 l     F .text	0000000000000014              .hidden _ZN6chrono6offset5local5inner7TZ_INFO6__init17h8e8ff620b54c270bE
0000000000056ed0 l     F .text	0000000000000034              .hidden _ZN6chrono6offset5local5inner7TZ_INFO29_$u7b$$u7b$constant$u7d$$u7d$28_$u7b$$u7b$closure$u7d$$u7d$17hd45e2e212a245881E
0000000000056190 l     F .text	0000000000000056              .hidden _ZN5alloc3str56_$LT$impl$u20$alloc..borrow..ToOwned$u20$for$u20$str$GT$8to_owned17h55c92770c7ae12a0E
0000000000055e00 l     F .text	00000000000001eb              .hidden _ZN4core3ptr7replace18precondition_check17h67cb956192d0f691E
0000000000059e20 l     F .text	0000000000000018              .hidden _ZN6chrono6offset5local7tz_info6parser6Cursor4peek17hf15d305d7e983f66E
0000000000059a10 l     F .text	00000000000000e7              .hidden _ZN6chrono6offset5local7tz_info6parser6Cursor10read_while17h6bc74d8c8227d563E
0000000000059790 l     F .text	000000000000016c              .hidden _ZN6chrono6offset5local7tz_info6parser6Cursor10read_exact17h6361dc0cced87ee3E
0000000000059900 l     F .text	0000000000000101              .hidden _ZN6chrono6offset5local7tz_info6parser6Cursor10read_until17h5152baf862eb0ce9E
000000000005a000 l     F .text	00000000000001c1              .hidden _ZN6chrono6offset5local7tz_info6parser6Cursor8read_int17h17963900b974be9cE
0000000000059d20 l     F .text	00000000000000d2              .hidden _ZN6chrono6offset5local7tz_info6parser6Cursor17read_optional_tag17h1185ad318e96fe1aE
0000000000059e00 l     F .text	000000000000001d              .hidden _ZN6chrono6offset5local7tz_info6parser6Cursor3new17hac8a46f5464ce2cdE
0000000000059e40 l     F .text	0000000000000019              .hidden _ZN6chrono6offset5local7tz_info6parser6Cursor8is_empty17h8228551ec2961d23E
000000000005a380 l     F .text	00000000000000c5              .hidden _ZN6chrono6offset5local7tz_info6parser6Cursor8read_tag17h70326d8d943f45a0E
000000000005a1d0 l     F .text	00000000000001ad              .hidden _ZN6chrono6offset5local7tz_info6parser6Cursor8read_int17hb53d92258ec61330E
0000000000059e60 l     F .text	0000000000000192              .hidden _ZN6chrono6offset5local7tz_info6parser6Cursor8read_int17h0474d58ec2bc6fb1E
0000000000055930 l     F .text	00000000000004c2              .hidden _ZN4core3ptr19copy_nonoverlapping18precondition_check17hc23096e47fd646d1E
0000000000059c10 l     F .text	0000000000000020              .hidden _ZN6chrono6offset5local7tz_info6parser6Cursor10read_while28_$u7b$$u7b$closure$u7d$$u7d$17habff97c12827b86cE
0000000000059740 l     F .text	0000000000000018              .hidden _ZN6chrono6offset5local7tz_info6parser5parse28_$u7b$$u7b$closure$u7d$$u7d$17hcdb2c690717b3481E
0000000000059bf0 l     F .text	0000000000000020              .hidden _ZN6chrono6offset5local7tz_info6parser6Cursor10read_while28_$u7b$$u7b$closure$u7d$$u7d$17h9502aa8773b86933E
0000000000056ad0 l     F .text	000000000000002b              .hidden _ZN6chrono6offset5local5inner5Cache6offset28_$u7b$$u7b$closure$u7d$$u7d$17hc43a35e1451e3826E
0000000000056d20 l     F .text	0000000000000069              .hidden _ZN6chrono6offset5local5inner6Source3new28_$u7b$$u7b$closure$u7d$$u7d$17h84e05b170abef3c3E
0000000000057a30 l     F .text	0000000000001cec              .hidden _ZN6chrono6offset5local7tz_info6parser5parse17h26cd93d29930376eE
0000000000000000 l    df *ABS*	0000000000000000              chrono.5536ef2a49ab4eeb-cgu.09
000000000002020c l       .gcc_except_table	0000000000000000              GCC_except_table5
0000000000020230 l       .gcc_except_table	0000000000000000              GCC_except_table6
0000000000020248 l       .gcc_except_table	0000000000000000              GCC_except_table7
0000000000020260 l       .gcc_except_table	0000000000000000              GCC_except_table8
000000000002026c l       .gcc_except_table	0000000000000000              GCC_except_table9
000000000005f150 l     F .text	000000000000001e              _ZN6chrono6offset5local7tz_info8timezone8TimeZone13from_posix_tz28_$u7b$$u7b$closure$u7d$$u7d$17h3d692b070230920aE
0000000000020278 l       .gcc_except_table	0000000000000000              GCC_except_table21
000000000002028c l       .gcc_except_table	0000000000000000              GCC_except_table22
00000000000202a4 l       .gcc_except_table	0000000000000000              GCC_except_table23
00000000000202c0 l       .gcc_except_table	0000000000000000              GCC_except_table24
000000000005bf50 l     F .text	000000000000061c              _ZN6chrono6offset5local7tz_info8timezone11TimeZoneRef20find_local_time_type17h53c10290ac862c5dE
000000000005c7f0 l     F .text	000000000000016d              _ZN6chrono6offset5local7tz_info8timezone11TimeZoneRef27unix_time_to_unix_leap_time17h0cb6c4737d9417f0E
000000000005c570 l     F .text	0000000000000272              _ZN6chrono6offset5local7tz_info8timezone11TimeZoneRef27unix_leap_time_to_unix_time17hbd78bdf96c26f3f4E
000000000005c960 l     F .text	0000000000000ae9              _ZN6chrono6offset5local7tz_info8timezone11TimeZoneRef31find_local_time_type_from_local17h9e3b5d431fd8a80bE
000000000005d450 l     F .text	0000000000000cc7              _ZN6chrono6offset5local7tz_info8timezone11TimeZoneRef8validate17h4720e9a31e294162E
000000000005e380 l     F .text	000000000000001b              _ZN6chrono6offset5local7tz_info8timezone12TimeZoneName5equal17h885e799a18eccca2E
000000000005e120 l     F .text	000000000000025d              _ZN6chrono6offset5local7tz_info8timezone12TimeZoneName3new17h573f8632ac78875fE
000000000005e3a0 l     F .text	0000000000000358              _ZN6chrono6offset5local7tz_info8timezone12find_tz_file17h08a8b0f229382ff7E
00000000000202dc l       .gcc_except_table	0000000000000000              GCC_except_table37
000000000005e960 l     F .text	00000000000007e5              _ZN6chrono6offset5local7tz_info8timezone8TimeZone13from_posix_tz17h422d8dfa5c71ab90E
000000000005f670 l     F .text	0000000000000150              _ZN6chrono6offset5local7tz_info8timezone8TimeZone9from_file17hcaba637dffa08845E
0000000000020318 l       .gcc_except_table	0000000000000000              GCC_except_table41
000000000005f5c0 l     F .text	00000000000000a2              _ZN6chrono6offset5local7tz_info8timezone8TimeZone6as_ref17h8e9ef639b843092aE
0000000000020398 l       .gcc_except_table	0000000000000000              GCC_except_table45
00000000000203bc l       .gcc_except_table	0000000000000000              GCC_except_table46
00000000000203ec l       .gcc_except_table	0000000000000000              GCC_except_table49
0000000000020410 l       .gcc_except_table	0000000000000000              GCC_except_table50
000000000005bf20 l     F .text	0000000000000009              .hidden _ZN6chrono6offset5local7tz_info8timezone10Transition14unix_leap_time17h9d042718dbfbd9f1E
000000000005bf00 l     F .text	0000000000000009              .hidden _ZN6chrono6offset5local7tz_info8timezone10LeapSecond14unix_leap_time17ha37a265cde35c8b8E
000000000005f3b0 l     F .text	0000000000000190              .hidden _ZN6chrono6offset5local7tz_info8timezone8TimeZone3utc17h9a51152f2ab880dfE
000000000005e700 l     F .text	0000000000000217              .hidden _ZN6chrono6offset5local7tz_info8timezone13LocalTimeType3new17h3b9dbcd0cf0658c3E
000000000005f540 l     F .text	0000000000000074              .hidden _ZN6chrono6offset5local7tz_info8timezone8TimeZone5local17h2d0be4761b3c6925E
000000000005e930 l     F .text	0000000000000023              .hidden _ZN6chrono6offset5local7tz_info8timezone8TimeZone12from_tz_data17h58b806fb3889ab7cE
000000000005f170 l     F .text	0000000000000045              .hidden _ZN6chrono6offset5local7tz_info8timezone8TimeZone20find_local_time_type17h87d9f10e591d1b02E
000000000005e920 l     F .text	0000000000000008              .hidden _ZN6chrono6offset5local7tz_info8timezone13LocalTimeType6offset17h025164352a15f1bfE
000000000005f1c0 l     F .text	0000000000000052              .hidden _ZN6chrono6offset5local7tz_info8timezone8TimeZone31find_local_time_type_from_local17h093f62191af7932aE
000000000005f220 l     F .text	0000000000000182              .hidden _ZN6chrono6offset5local7tz_info8timezone8TimeZone3new17h28d81c931824223fE
000000000005bf10 l     F .text	000000000000000f              .hidden _ZN6chrono6offset5local7tz_info8timezone10LeapSecond3new17hb8a768d41846818dE
000000000005bf30 l     F .text	0000000000000011              .hidden _ZN6chrono6offset5local7tz_info8timezone10Transition3new17h6c6d2c30f7f8f592E
000000000005af30 l     F .text	0000000000000083              .hidden _ZN4core3num7nonzero16NonZero$LT$T$GT$13new_unchecked18precondition_check17h51ff0f0b3ae5e26eE
0000000000000000 l    df *ABS*	0000000000000000              chrono.5536ef2a49ab4eeb-cgu.10
0000000000060490 l     F .text	0000000000000016              _ZN4core3cmp5impls54_$LT$impl$u20$core..cmp..PartialEq$u20$for$u20$u64$GT$2ne17h3e63735f257f0374E
0000000000020420 l       .gcc_except_table	0000000000000000              GCC_except_table103
000000000002042c l       .gcc_except_table	0000000000000000              GCC_except_table104
0000000000020448 l       .gcc_except_table	0000000000000000              GCC_except_table105
0000000000020464 l       .gcc_except_table	0000000000000000              GCC_except_table106
0000000000060de0 l     F .text	000000000000017d              _ZN6chrono8datetime40DateTime$LT$chrono..offset..utc..Utc$GT$14from_timestamp17h076071df73bef15aE
0000000000060fb0 l     F .text	0000000000000421              _ZN74_$LT$chrono..offset..local..tz_info..Error$u20$as$u20$core..fmt..Debug$GT$3fmt17hae40d7a0535981b1E
0000000000060470 l     F .text	0000000000000014              .hidden _ZN4core3cmp5impls53_$LT$impl$u20$core..cmp..PartialEq$u20$for$u20$u8$GT$2eq17he437975c223325c0E
0000000000060450 l     F .text	000000000000001c              .hidden _ZN4core3cmp5impls48_$LT$impl$u20$core..cmp..Ord$u20$for$u20$i64$GT$3cmp17hd0922c2e91985134E
0000000000060430 l     F .text	0000000000000019              .hidden _ZN4core3cmp5impls48_$LT$impl$u20$core..cmp..Ord$u20$for$u20$i32$GT$3cmp17h9df8a41638d88484E
00000000000602e0 l     F .text	0000000000000145              .hidden _ZN3std4hash6random13DefaultHasher3new17h1de7b98c2fe42156E
0000000000060f60 l     F .text	0000000000000023              .hidden _ZN71_$LT$std..hash..random..DefaultHasher$u20$as$u20$core..hash..Hasher$GT$5write17hcc97fe912e47db5eE
0000000000060f90 l     F .text	0000000000000019              .hidden _ZN71_$LT$std..hash..random..DefaultHasher$u20$as$u20$core..hash..Hasher$GT$6finish17hc995a7df0e956363E
00000000000604b0 l     F .text	0000000000000014              .hidden _ZN4core3cmp5impls55_$LT$impl$u20$core..cmp..PartialEq$u20$for$u20$char$GT$2eq17h82aed7276b53d82aE
0000000000060ab0 l     F .text	0000000000000117              .hidden _ZN4core7unicode12unicode_data11white_space6lookup17h35b794e2b3fd96c1E
0000000000000000 l    df *ABS*	0000000000000000              chrono.5536ef2a49ab4eeb-cgu.11
0000000000020474 l       .gcc_except_table	0000000000000000              GCC_except_table4
0000000000065c40 l     F .text	000000000000001a              _ZN70_$LT$chrono..format..InternalFixed$u20$as$u20$core..cmp..PartialEq$GT$2eq17h67b37e0a4e473e16E
0000000000062b30 l     F .text	0000000000000023              _ZN60_$LT$chrono..format..Pad$u20$as$u20$core..cmp..PartialEq$GT$2eq17h78b92c5a10ffaa1dE
0000000000065d80 l     F .text	0000000000000023              _ZN72_$LT$chrono..format..OffsetPrecision$u20$as$u20$core..cmp..PartialEq$GT$2eq17h6f8435607b0dde99E
0000000000020484 l       .gcc_except_table	0000000000000000              GCC_except_table14
0000000000020494 l       .gcc_except_table	0000000000000000              GCC_except_table15
0000000000065af0 l     F .text	0000000000000047              _ZN6chrono6format8strftime13StrftimeItems15parse_next_item28_$u7b$$u7b$closure$u7d$$u7d$17hccda6501aaebbe5cE
0000000000065ac0 l     F .text	0000000000000026              _ZN6chrono6format8strftime13StrftimeItems15parse_next_item28_$u7b$$u7b$closure$u7d$$u7d$17h35f8c56f264dbe67E
0000000000065de0 l     F .text	0000000000000011              _ZN79_$LT$std..path..Path$u20$as$u20$core..convert..AsRef$LT$std..path..Path$GT$$GT$6as_ref17h2b35cb39fd180de0E
00000000000628c0 l     F .text	0000000000000008              _ZN58_$LT$chrono..format..Pad$u20$as$u20$core..clone..Clone$GT$5clone17h4f1f23590378611cE
00000000000628d0 l     F .text	0000000000000164              _ZN59_$LT$chrono..format..Item$u20$as$u20$core..clone..Clone$GT$5clone17hae745d0426415169E
0000000000062b60 l     F .text	00000000000000c0              _ZN62_$LT$chrono..format..Numeric$u20$as$u20$core..clone..Clone$GT$5clone17ha55ee213dccebdb8E
0000000000062a40 l     F .text	00000000000000e7              _ZN60_$LT$chrono..format..Fixed$u20$as$u20$core..clone..Clone$GT$5clone17h7df0991ba9203d58E
0000000000062c90 l     F .text	000000000000000c              _ZN68_$LT$chrono..format..InternalFixed$u20$as$u20$core..clone..Clone$GT$5clone17h56c0355e7799e3c2E
0000000000062c60 l     F .text	0000000000000023              _ZN63_$LT$chrono..format..Colons$u20$as$u20$core..cmp..PartialEq$GT$2eq17h9a4b5b84c45ddbf3E
0000000000065c60 l     F .text	0000000000000043              _ZN71_$LT$chrono..format..InternalInternal$u20$as$u20$core..clone..Clone$GT$5clone17he08fb4aa677a0facE
00000000000204a4 l       .gcc_except_table	0000000000000000              GCC_except_table49
00000000000204cc l       .gcc_except_table	0000000000000000              GCC_except_table50
00000000000204f4 l       .gcc_except_table	0000000000000000              GCC_except_table52
00000000000633d0 l     F .text	0000000000000011              _ZN6chrono6format14internal_fixed17hbcd9089690fd85b7E
00000000000633f0 l     F .text	0000000000000015              _ZN6chrono6format3num17h817a9b6235edd14dE
0000000000063410 l     F .text	0000000000000015              _ZN6chrono6format4num017hc120739387a1ba64E
0000000000063430 l     F .text	0000000000000015              _ZN6chrono6format4nums17h400907da65e0424aE
0000000000063450 l     F .text	0000000000000011              _ZN6chrono6format5fixed17habe03ea938a3ec87E
0000000000020510 l       .gcc_except_table	0000000000000000              GCC_except_table63
0000000000063470 l     F .text	0000000000002648              _ZN6chrono6format8strftime13StrftimeItems15parse_next_item17h0baa7fa4fdfe5767E
0000000000065b70 l     F .text	00000000000000ce              _ZN6chrono6format8strftime13StrftimeItems5error17h5d83a06e91dea894E
00000000000c52b0 l     O .data.rel.ro	0000000000000010              _ZN6chrono6format8strftime5T_FMT17ha6dd72bbdf2dad2dE
00000000000c5338 l     O .data.rel.ro	0000000000000010              _ZN6chrono6format8strftime7D_T_FMT17h2748d7bfb1531abdE
00000000000c4d68 l     O .data.rel.ro	0000000000000010              _ZN6chrono6format8strftime10T_FMT_AMPM17h15721eaf3b28b4bbE
00000000000c5228 l     O .data.rel.ro	0000000000000010              _ZN6chrono6format8strftime5D_FMT17h376167afe68e9ba7E
000000000002052c l       .gcc_except_table	0000000000000000              GCC_except_table64
0000000000020578 l       .gcc_except_table	0000000000000000              GCC_except_table70
0000000000065db0 l     F .text	0000000000000023              _ZN73_$LT$chrono..format..InternalInternal$u20$as$u20$core..cmp..PartialEq$GT$2eq17h5c7cb1bb85fd09a8E
00000000000c4d78 l     O .data.rel.ro	00000000000000a8              _ZN6chrono6format8strftime10T_FMT_AMPM27_$u7b$$u7b$nested$u7d$$u7d$17h7c109fcaa80765bdE
00000000000c5238 l     O .data.rel.ro	0000000000000078              _ZN6chrono6format8strftime5D_FMT27_$u7b$$u7b$nested$u7d$$u7d$17hef9864b66605c82fE
00000000000c52c0 l     O .data.rel.ro	0000000000000078              _ZN6chrono6format8strftime5T_FMT27_$u7b$$u7b$nested$u7d$$u7d$17ha52292aa7533523dE
00000000000c5348 l     O .data.rel.ro	0000000000000138              _ZN6chrono6format8strftime7D_T_FMT27_$u7b$$u7b$nested$u7d$$u7d$17hadda9b9c9d618877E
0000000000062750 l     F .text	00000000000000f5              .hidden _ZN4core5slice6memchr6memchr17h94b727ca1d57237dE
0000000000062c20 l     F .text	000000000000001f              .hidden _ZN62_$LT$std..path..PathBuf$u20$as$u20$core..ops..deref..Deref$GT$5deref17h0bbc81f9fba53942E
0000000000065e00 l     F .text	000000000000001f              .hidden _ZN82_$LT$std..path..PathBuf$u20$as$u20$core..convert..AsRef$LT$std..path..Path$GT$$GT$6as_ref17h044729a5e45416ccE
0000000000000000 l    df *ABS*	0000000000000000              chrono.5536ef2a49ab4eeb-cgu.12
0000000000020594 l       .gcc_except_table	0000000000000000              GCC_except_table1
00000000000205ac l       .gcc_except_table	0000000000000000              GCC_except_table8
00000000000205c4 l       .gcc_except_table	0000000000000000              GCC_except_table10
00000000000205e0 l       .gcc_except_table	0000000000000000              GCC_except_table11
0000000000065fc0 l     F .text	0000000000000085              .hidden _ZN103_$LT$std..sys..thread_local..abort_on_dtor_unwind..DtorUnwindGuard$u20$as$u20$core..ops..drop..Drop$GT$4drop17hd5408bb7bd7d6b0eE
0000000000000000 l    df *ABS*	0000000000000000              chrono.5536ef2a49ab4eeb-cgu.13
0000000000066c50 l     F .text	0000000000000279              _ZN4core5slice3raw18from_raw_parts_mut18precondition_check17h1d8116af602f0851E
00000000000666c0 l     F .text	000000000000005a              _ZN4core4char7methods8len_utf817h1b40c74a3ee519bdE
0000000000066780 l     F .text	0000000000000242              _ZN4core4hash3sip9u8to64_le17h888f51d6aabb7511E
0000000000020628 l       .gcc_except_table	0000000000000000              GCC_except_table25
000000000002063c l       .gcc_except_table	0000000000000000              GCC_except_table26
0000000000020650 l       .gcc_except_table	0000000000000000              GCC_except_table27
0000000000020660 l       .gcc_except_table	0000000000000000              GCC_except_table29
000000000002067c l       .gcc_except_table	0000000000000000              GCC_except_table47
0000000000020688 l       .gcc_except_table	0000000000000000              GCC_except_table48
0000000000020694 l       .gcc_except_table	0000000000000000              GCC_except_table51
00000000000206b4 l       .gcc_except_table	0000000000000000              GCC_except_table52
00000000000675b0 l     F .text	000000000000016b              _ZN69_$LT$core..hash..sip..Sip13Rounds$u20$as$u20$core..hash..sip..Sip$GT$8c_rounds17hbd95654eecaf7605E
0000000000067720 l     F .text	00000000000004c3              _ZN69_$LT$core..hash..sip..Sip13Rounds$u20$as$u20$core..hash..sip..Sip$GT$8d_rounds17h366c4c07f7856070E
00000000000669d0 l     F .text	0000000000000279              .hidden _ZN4core5slice3raw14from_raw_parts18precondition_check17h133368603c9d4b1eE
0000000000066560 l     F .text	000000000000015d              .hidden _ZN4core4char7methods25encode_utf8_raw_unchecked17h07356f9442614ec5E
0000000000066390 l     F .text	000000000000005e              .hidden _ZN4core4char7methods22_$LT$impl$u20$char$GT$13is_whitespace17h73bad824e2a1a244E
0000000000066440 l     F .text	000000000000000c              .hidden _ZN4core4char7methods22_$LT$impl$u20$char$GT$8len_utf817heba4dc2ee3fba826E
0000000000066290 l     F .text	00000000000000f3              .hidden _ZN4core4char7methods15encode_utf8_raw17h7f7ec5c4ec4b2854E
0000000000066190 l     F .text	00000000000000f7              .hidden _ZN4core4char7convert18from_u32_unchecked18precondition_check17h45ee8752c148e678E
0000000000066450 l     F .text	0000000000000101              .hidden _ZN4core4char7methods22_$LT$impl$u20$char$GT$8to_digit17h37f68dd06edc8925E
0000000000066100 l     F .text	0000000000000067              .hidden _ZN3std2io5error14repr_bitpacked4Repr10new_simple17h9a7f8486f7f7f457E
00000000000663f0 l     F .text	0000000000000041              .hidden _ZN4core4char7methods22_$LT$impl$u20$char$GT$19is_ascii_whitespace17h533ea826e4b4e785E
0000000000000000 l    df *ABS*	0000000000000000              chrono.5536ef2a49ab4eeb-cgu.14
00000000000206c4 l       .gcc_except_table	0000000000000000              GCC_except_table6
00000000000206dc l       .gcc_except_table	0000000000000000              GCC_except_table7
00000000000206ec l       .gcc_except_table	0000000000000000              GCC_except_table8
0000000000020704 l       .gcc_except_table	0000000000000000              GCC_except_table9
0000000000020718 l       .gcc_except_table	0000000000000000              GCC_except_table10
0000000000020738 l       .gcc_except_table	0000000000000000              GCC_except_table11
0000000000020748 l       .gcc_except_table	0000000000000000              GCC_except_table12
0000000000020764 l       .gcc_except_table	0000000000000000              GCC_except_table18
00000000000207a0 l       .gcc_except_table	0000000000000000              GCC_except_table23
00000000000207d4 l       .gcc_except_table	0000000000000000              GCC_except_table31
0000000000020808 l       .gcc_except_table	0000000000000000              GCC_except_table41
00000000000686a0 l     F .text	0000000000000011              .hidden _ZN3std3ffi6os_str85_$LT$impl$u20$core..convert..AsRef$LT$std..ffi..os_str..OsStr$GT$$u20$for$u20$str$GT$6as_ref17h0dd0661da245fca7E
0000000000068210 l     F .text	0000000000000066              .hidden _ZN105_$LT$std..ffi..os_str..OsString$u20$as$u20$core..ops..index..Index$LT$core..ops..range..RangeFull$GT$$GT$5index17h5219950986466438E
0000000000000000 l    df *ABS*	0000000000000000              chrono.5536ef2a49ab4eeb-cgu.15
000000000002082c l       .gcc_except_table	0000000000000000              GCC_except_table1
000000000002083c l       .gcc_except_table	0000000000000000              GCC_except_table5
0000000000020870 l       .gcc_except_table	0000000000000000              GCC_except_table6
00000000000208a4 l       .gcc_except_table	0000000000000000              GCC_except_table9
00000000000208bc l       .gcc_except_table	0000000000000000              GCC_except_table10
00000000000208d4 l       .gcc_except_table	0000000000000000              GCC_except_table11
00000000000208e8 l       .gcc_except_table	0000000000000000              GCC_except_table12
00000000000208fc l       .gcc_except_table	0000000000000000              GCC_except_table13
0000000000020910 l       .gcc_except_table	0000000000000000              GCC_except_table14
0000000000020924 l       .gcc_except_table	0000000000000000              GCC_except_table16
0000000000020934 l       .gcc_except_table	0000000000000000              GCC_except_table17
0000000000020944 l       .gcc_except_table	0000000000000000              GCC_except_table41
000000000002096c l       .gcc_except_table	0000000000000000              GCC_except_table42
000000000006b0f0 l     F .text	00000000000000a1              _ZN5alloc3vec16Vec$LT$T$C$A$GT$17from_raw_parts_in18precondition_check17h24181491577cf3e9E
0000000000020994 l       .gcc_except_table	0000000000000000              GCC_except_table54
00000000000209a4 l       .gcc_except_table	0000000000000000              GCC_except_table55
00000000000209b4 l       .gcc_except_table	0000000000000000              GCC_except_table56
000000000006b1f0 l     F .text	00000000000000a1              .hidden _ZN5alloc3vec16Vec$LT$T$C$A$GT$7set_len18precondition_check17h8be8aed871318100E
000000000006ab40 l     F .text	000000000000000e              .hidden _ZN4core3str21_$LT$impl$u20$str$GT$3len17h8109075349f58490E
000000000006acd0 l     F .text	0000000000000014              .hidden _ZN4core3str21_$LT$impl$u20$str$GT$5chars17he2d4012ed6aa79e2E
000000000006ba60 l     F .text	000000000000005c              .hidden _ZN81_$LT$core..str..iter..Chars$u20$as$u20$core..iter..traits..iterator..Iterator$GT$4next17h66acbb2f66cddaeaE
000000000006ada0 l     F .text	0000000000000014              .hidden _ZN4core3str21_$LT$impl$u20$str$GT$8is_empty17h8a85b30fd2a97af3E
000000000006a6c0 l     F .text	000000000000015d              .hidden _ZN102_$LT$core..str..iter..CharIndices$u20$as$u20$core..iter..traits..double_ended..DoubleEndedIterator$GT$9next_back17h273f35991f4e1c37E
000000000006bac0 l     F .text	0000000000000117              .hidden _ZN87_$LT$core..str..iter..CharIndices$u20$as$u20$core..iter..traits..iterator..Iterator$GT$4next17h5445621f0f9cf3c4E
000000000006a820 l     F .text	0000000000000014              .hidden _ZN14iana_time_zone12get_timezone17h78f538a79bb8c81dE
000000000006adf0 l     F .text	0000000000000070              .hidden _ZN4core3str4iter5Chars6as_str17h3d760888b42e3b2fE
0000000000000000 l    df *ABS*	0000000000000000              iana_time_zone.fffa98dc5180f07d-cgu.1
00000000000209c4 l       .gcc_except_table	0000000000000000              GCC_except_table3
00000000000209d4 l       .gcc_except_table	0000000000000000              GCC_except_table5
00000000000209e4 l       .gcc_except_table	0000000000000000              GCC_except_table6
00000000000209f4 l       .gcc_except_table	0000000000000000              GCC_except_table7
0000000000020a1c l       .gcc_except_table	0000000000000000              GCC_except_table8
0000000000020a44 l       .gcc_except_table	0000000000000000              GCC_except_table9
000000000006ca60 l     F .text	000000000000049f              _ZN3std2io5error14repr_bitpacked14kind_from_prim17hb1f347e956273e47E
0000000000020a68 l       .gcc_except_table	0000000000000000              GCC_except_table10
0000000000020a78 l       .gcc_except_table	0000000000000000              GCC_except_table11
0000000000020a88 l       .gcc_except_table	0000000000000000              GCC_except_table26
0000000000020a9c l       .gcc_except_table	0000000000000000              GCC_except_table27
000000000006d840 l     F .text	000000000000015d              _ZN4core4char7methods25encode_utf8_raw_unchecked17h1e18a717156efc21E
000000000006d9a0 l     F .text	00000000000000a0              _ZN4core4hint16assert_unchecked18precondition_check17h445952013525b59cE
0000000000020ab0 l       .gcc_except_table	0000000000000000              GCC_except_table39
0000000000020ac4 l       .gcc_except_table	0000000000000000              GCC_except_table40
0000000000020ad8 l       .gcc_except_table	0000000000000000              GCC_except_table41
0000000000020aec l       .gcc_except_table	0000000000000000              GCC_except_table49
000000000006bbe0 l     F .text	00000000000000c6              .hidden _ZN106_$LT$core..ops..range..Range$LT$usize$GT$$u20$as$u20$core..slice..index..SliceIndex$LT$$u5b$T$u5d$$GT$$GT$13get_unchecked18precondition_check17h2f6e2a5466b3d8e3E
000000000006bcb0 l     F .text	0000000000000043              .hidden _ZN3std2fs11OpenOptions3new17h0e3b15f11c15ac43E
000000000006bd80 l     F .text	000000000000001b              .hidden _ZN3std2fs11OpenOptions4read17h68ec3381d301e91fE
000000000006dad0 l     F .text	0000000000000279              .hidden _ZN4core5slice3raw14from_raw_parts18precondition_check17h1b1d7add4f326763E
000000000006da40 l     F .text	0000000000000083              .hidden _ZN4core4hint21unreachable_unchecked18precondition_check17h8ca1192a1554d4acE
000000000006d6e0 l     F .text	00000000000000f3              .hidden _ZN4core4char7methods15encode_utf8_raw17hcc1d735a6403115aE
000000000006d030 l     F .text	00000000000000b4              .hidden _ZN4core3num23_$LT$impl$u20$isize$GT$13unchecked_neg18precondition_check17h454a93e5a270b366E
000000000006d130 l     F .text	00000000000000a1              .hidden _ZN4core3ptr9const_ptr33_$LT$impl$u20$$BP$const$u20$T$GT$20offset_from_unsigned18precondition_check17hec5c80506e0d2d39E
000000000006d1e0 l     F .text	000000000000001c              .hidden _ZN4core3str21_$LT$impl$u20$str$GT$10trim_start17h06f4ffbc2af646d2E
000000000006d4b0 l     F .text	000000000000000e              .hidden _ZN4core3str21_$LT$impl$u20$str$GT$3len17h216ff95c33f55a71E
000000000006d4c0 l     F .text	0000000000000014              .hidden _ZN4core3str21_$LT$impl$u20$str$GT$5chars17h91a93a305ca82259E
000000000006d6a0 l     F .text	0000000000000014              .hidden _ZN4core3str21_$LT$impl$u20$str$GT$8is_empty17h2f65e500a086b346E
000000000006d6c0 l     F .text	000000000000001c              .hidden _ZN4core3str21_$LT$impl$u20$str$GT$8trim_end17h88a7ecba0f477263E
000000000006dd50 l     F .text	0000000000000279              .hidden _ZN4core5slice3raw18from_raw_parts_mut18precondition_check17h6b0f9516e2d440b3E
000000000006d7e0 l     F .text	000000000000005e              .hidden _ZN4core4char7methods22_$LT$impl$u20$char$GT$13is_whitespace17h9168db23e7422497E
000000000006e5c0 l     F .text	00000000000000a1              .hidden _ZN75_$LT$usize$u20$as$u20$core..slice..index..SliceIndex$LT$$u5b$T$u5d$$GT$$GT$13get_unchecked18precondition_check17he960eb0439b0fca6E
000000000006e670 l     F .text	0000000000000023              .hidden _ZN78_$LT$std..io..error..repr_bitpacked..Repr$u20$as$u20$core..ops..drop..Drop$GT$4drop17h0e94bd66e2150bbbE
0000000000000000 l    df *ABS*	0000000000000000              iana_time_zone.fffa98dc5180f07d-cgu.0
000000000006e900 l     F .text	000000000000015d              _ZN102_$LT$core..str..iter..CharIndices$u20$as$u20$core..iter..traits..double_ended..DoubleEndedIterator$GT$9next_back17h5d7eb246a2c2ea7eE
00000000000714a0 l     F .text	000000000000000d              _ZN81_$LT$core..str..pattern..CharSearcher$u20$as$u20$core..str..pattern..Searcher$GT$8haystack17h103875b0491c669fE
0000000000070fc0 l     F .text	00000000000004d7              _ZN81_$LT$core..str..pattern..CharSearcher$u20$as$u20$core..str..pattern..Searcher$GT$10next_match17hefe22e8321b11f50E
0000000000020b00 l       .gcc_except_table	0000000000000000              GCC_except_table14
0000000000020b0c l       .gcc_except_table	0000000000000000              GCC_except_table16
0000000000070f20 l     F .text	000000000000006f              _ZN81_$LT$core..str..iter..Bytes$u20$as$u20$core..iter..traits..iterator..Iterator$GT$4next17h7a5e67f61b1e0f15E
0000000000020b1c l       .gcc_except_table	0000000000000000              GCC_except_table17
0000000000020b3c l       .gcc_except_table	0000000000000000              GCC_except_table24
0000000000070760 l     F .text	0000000000000061              _ZN5alloc6string6String6as_str17h76d72cd4e27f2c51E
0000000000020b50 l       .gcc_except_table	0000000000000000              GCC_except_table30
0000000000020b6c l       .gcc_except_table	0000000000000000              GCC_except_table37
00000000000714b0 l     F .text	0000000000000117              _ZN87_$LT$core..str..iter..CharIndices$u20$as$u20$core..iter..traits..iterator..Iterator$GT$4next17hfb8d8b03defa4351E
0000000000020b90 l       .gcc_except_table	0000000000000000              GCC_except_table45
0000000000020b9c l       .gcc_except_table	0000000000000000              GCC_except_table46
000000000006f850 l     F .text	000000000000008f              .hidden _ZN52_$LT$char$u20$as$u20$core..str..pattern..Pattern$GT$12is_prefix_of17heaacc22375ba486bE
000000000006f8e0 l     F .text	0000000000000132              .hidden _ZN52_$LT$char$u20$as$u20$core..str..pattern..Pattern$GT$13into_searcher17h8063025b86c49b00E
000000000006fa20 l     F .text	000000000000003f              .hidden _ZN55_$LT$$RF$str$u20$as$u20$core..str..pattern..Pattern$GT$12is_prefix_of17h5c26edacfda29258E
00000000000706d0 l     F .text	0000000000000074              .hidden _ZN5alloc6string6String13with_capacity17h78683955ef800ea8E
0000000000070750 l     F .text	000000000000000d              .hidden _ZN5alloc6string6String5clear17h5d2c6d9e1a477d56E
00000000000707d0 l     F .text	0000000000000013              .hidden _ZN5alloc6string6String8is_empty17hebf65954cb0e8e9eE
00000000000707f0 l     F .text	00000000000001a6              .hidden _ZN5alloc6string6String8truncate17h1e75711b66e85ab0E
00000000000709a0 l     F .text	00000000000001d5              .hidden _ZN5alloc6string6String9from_utf817h00f17019895db04dE
0000000000070bb0 l     F .text	000000000000000c              .hidden _ZN65_$LT$alloc..string..String$u20$as$u20$core..ops..deref..Deref$GT$5deref17h5820d7273fc60129E
0000000000070f90 l     F .text	0000000000000024              .hidden _ZN81_$LT$core..str..iter..Bytes$u20$as$u20$core..iter..traits..iterator..Iterator$GT$9size_hint17h56fb9414c57ccbb7E
0000000000000000 l    df *ABS*	0000000000000000              iana_time_zone.fffa98dc5180f07d-cgu.2
0000000000072ff0 l     F .text	00000000000006cf              _ZN14iana_time_zone8platform7openwrt9read_word17h0a90b7c5655a54baE
0000000000071d20 l     F .text	00000000000001a9              _ZN14iana_time_zone8platform12etc_timezone17h7e2a4a3db8675422E
0000000000020ba8 l       .gcc_except_table	0000000000000000              GCC_except_table4
0000000000071ed0 l     F .text	0000000000000396              _ZN14iana_time_zone8platform13etc_localtime17h10bed01576d0b295E
0000000000073e80 l     F .text	000000000000023f              _ZN3std3ffi6os_str8OsString11into_string17hf44afe0f65dfe986E
0000000000020bd0 l       .gcc_except_table	0000000000000000              GCC_except_table5
0000000000072270 l     F .text	000000000000000e              _ZN14iana_time_zone8platform13etc_localtime28_$u7b$$u7b$closure$u7d$$u7d$17hc6344253b4d8ba13E
00000000000722d0 l     F .text	0000000000000062              _ZN14iana_time_zone8platform18get_timezone_inner28_$u7b$$u7b$closure$u7d$$u7d$17h837b7725407148e7E
0000000000020c04 l       .gcc_except_table	0000000000000000              GCC_except_table8
0000000000072340 l     F .text	0000000000000062              _ZN14iana_time_zone8platform18get_timezone_inner28_$u7b$$u7b$closure$u7d$$u7d$17hc85fb709423db40cE
00000000000723c0 l     F .text	0000000000000bea              _ZN14iana_time_zone8platform7openwrt17etc_config_system17h38afcb8de0e34b97E
0000000000020c1c l       .gcc_except_table	0000000000000000              GCC_except_table9
0000000000072fb0 l     F .text	000000000000003b              _ZN14iana_time_zone8platform7openwrt17etc_config_system28_$u7b$$u7b$closure$u7d$$u7d$17hbf7ae5503fe4f4d7E
0000000000020c34 l       .gcc_except_table	0000000000000000              GCC_except_table11
00000000000736c0 l     F .text	0000000000000024              _ZN14iana_time_zone8platform7openwrt9read_word28_$u7b$$u7b$closure$u7d$$u7d$17he540d5cb92eddf05E
0000000000020ca0 l       .gcc_except_table	0000000000000000              GCC_except_table19
0000000000020cc8 l       .gcc_except_table	0000000000000000              GCC_except_table21
00000000000740c0 l     F .text	00000000000000b4              _ZN3std3sys2fs4unix23debug_assert_fd_is_open17hc53df728b1d104f0E
00000000000742b0 l     F .text	0000000000000020              _ZN4core3ops8function5FnMut8call_mut17h12e45396289ceffcE
0000000000020ce0 l       .gcc_except_table	0000000000000000              GCC_except_table31
0000000000020cfc l       .gcc_except_table	0000000000000000              GCC_except_table43
00000000000752d0 l     F .text	000000000000002d              _ZN69_$LT$std..os..fd..owned..OwnedFd$u20$as$u20$core..ops..drop..Drop$GT$4drop17h351e7c26602733a6E
0000000000020d14 l       .gcc_except_table	0000000000000000              GCC_except_table55
0000000000020d2c l       .gcc_except_table	0000000000000000              GCC_except_table57
0000000000020d44 l       .gcc_except_table	0000000000000000              GCC_except_table60
0000000000020d5c l       .gcc_except_table	0000000000000000              GCC_except_table69
0000000000020d6c l       .gcc_except_table	0000000000000000              GCC_except_table70
0000000000020d78 l       .gcc_except_table	0000000000000000              GCC_except_table87
00000000000742d0 l     F .text	000000000000001d              .hidden _ZN4core3ops8function5FnMut8call_mut17h14c5a8e30c72ae0cE
0000000000074dd0 l     F .text	00000000000000b9              .hidden _ZN4core5alloc6layout6Layout25from_size_align_unchecked18precondition_check17h1292be02e22c156dE
0000000000075130 l     F .text	00000000000000d7              .hidden _ZN4core9ub_checks23maybe_is_nonoverlapping7runtime17h245653559b9ecb89E
0000000000075250 l     F .text	0000000000000080              .hidden _ZN63_$LT$alloc..alloc..Global$u20$as$u20$core..alloc..Allocator$GT$10deallocate17hfab60bd0c8e6fea0E
0000000000000000 l    df *ABS*	0000000000000000              iana_time_zone.fffa98dc5180f07d-cgu.3
0000000000020d90 l       .gcc_except_table	0000000000000000              GCC_except_table2
0000000000020db4 l       .gcc_except_table	0000000000000000              GCC_except_table7
00000000000768a0 l     F .text	000000000000009b              _ZN4core3str6traits54_$LT$impl$u20$core..cmp..PartialEq$u20$for$u20$str$GT$2eq17h056cf15a72ca1d76E
0000000000020dd0 l       .gcc_except_table	0000000000000000              GCC_except_table15
0000000000020de4 l       .gcc_except_table	0000000000000000              GCC_except_table16
00000000000766d0 l     F .text	0000000000000134              _ZN4core3str6traits112_$LT$impl$u20$core..slice..index..SliceIndex$LT$str$GT$$u20$for$u20$core..ops..range..RangeFrom$LT$usize$GT$$GT$3get17h0206e89f25712e15E
0000000000076810 l     F .text	0000000000000090              _ZN4core3str6traits112_$LT$impl$u20$core..slice..index..SliceIndex$LT$str$GT$$u20$for$u20$core..ops..range..RangeFrom$LT$usize$GT$$GT$5index17hf6008ad823998f8bE
0000000000020df8 l       .gcc_except_table	0000000000000000              GCC_except_table35
0000000000020e08 l       .gcc_except_table	0000000000000000              GCC_except_table39
0000000000020e28 l       .gcc_except_table	0000000000000000              GCC_except_table47
0000000000076ac0 l     F .text	00000000000000f5              .hidden _ZN4core5slice6memchr6memchr17hab5d742fbf55372bE
0000000000076600 l     F .text	00000000000000c6              .hidden _ZN4core3str6traits108_$LT$impl$u20$core..slice..index..SliceIndex$LT$str$GT$$u20$for$u20$core..ops..range..Range$LT$usize$GT$$GT$13get_unchecked18precondition_check17hb45ea2048037fbb7E
0000000000076d50 l     F .text	0000000000000117              .hidden _ZN4core7unicode12unicode_data11white_space6lookup17h2b59fefffde5d326E
00000000000764f0 l     F .text	000000000000009b              .hidden _ZN4core3ptr8non_null16NonNull$LT$T$GT$13new_unchecked18precondition_check17h892a850cda361b7fE
0000000000075ce0 l     F .text	00000000000004c2              .hidden _ZN4core3ptr19copy_nonoverlapping18precondition_check17hab0aa1ab6f514085E
00000000000773d0 l     F .text	00000000000000a1              .hidden _ZN5alloc3vec16Vec$LT$T$C$A$GT$7set_len18precondition_check17h419514bd172e76a0E
0000000000076970 l     F .text	00000000000000f7              .hidden _ZN4core4char7convert18from_u32_unchecked18precondition_check17h89a08963f4968946E
00000000000761b0 l     F .text	000000000000033a              .hidden _ZN4core3ptr4copy18precondition_check17hd5ab14ad3c4b4e03E
0000000000075c80 l     F .text	000000000000001a              .hidden _ZN3std4path7PathBuf14into_os_string17h998dcd5473b16ccaE
0000000000076e70 l     F .text	0000000000000056              .hidden _ZN5alloc3str56_$LT$impl$u20$alloc..borrow..ToOwned$u20$for$u20$str$GT$8to_owned17haa0408afebdb32daE
0000000000077b50 l     F .text	0000000000000010              .hidden _ZN83_$LT$alloc..vec..set_len_on_drop..SetLenOnDrop$u20$as$u20$core..ops..drop..Drop$GT$4drop17h84abebaf14b89c5aE
0000000000075c60 l     F .text	0000000000000011              .hidden _ZN3std4path77_$LT$impl$u20$core..convert..AsRef$LT$std..path..Path$GT$$u20$for$u20$str$GT$6as_ref17h14f343e88b3c3fa0E
0000000000077510 l     F .text	0000000000000045              .hidden _ZN70_$LT$core..num..error..TryFromIntError$u20$as$u20$core..fmt..Debug$GT$3fmt17hc191cde551d36263E
0000000000000000 l    df *ABS*	0000000000000000              num_traits.bd98046d712a3bea-cgu.0
0000000000020e60 l       .gcc_except_table	0000000000000000              GCC_except_table3
0000000000020e7c l       .gcc_except_table	0000000000000000              GCC_except_table4
0000000000020e98 l       .gcc_except_table	0000000000000000              GCC_except_table7
0000000000020eac l       .gcc_except_table	0000000000000000              GCC_except_table8
0000000000020ebc l       .gcc_except_table	0000000000000000              GCC_except_table9
0000000000078080 l     F .text	000000000000000f              _ZN4core3cmp5impls59_$LT$impl$u20$core..cmp..PartialEq$u20$for$u20$$LP$$RP$$GT$2eq17h36fa5ef16e130a33E
0000000000078100 l     F .text	00000000000000a1              _ZN4core3ptr9const_ptr33_$LT$impl$u20$$BP$const$u20$T$GT$20offset_from_unsigned18precondition_check17he47f58ebf1941bbcE
00000000000786d0 l     F .text	0000000000000083              _ZN4core4hint21unreachable_unchecked18precondition_check17h3988ced3cf438ac4E
0000000000078400 l     F .text	00000000000000c6              _ZN4core3str6traits108_$LT$impl$u20$core..slice..index..SliceIndex$LT$str$GT$$u20$for$u20$core..ops..range..Range$LT$usize$GT$$GT$13get_unchecked18precondition_check17h5ef4d06b4d3c481cE
00000000000784d0 l     F .text	0000000000000134              _ZN4core3str6traits112_$LT$impl$u20$core..slice..index..SliceIndex$LT$str$GT$$u20$for$u20$core..ops..range..RangeFrom$LT$usize$GT$$GT$3get17h62ee9ad7aaf35b0cE
0000000000078610 l     F .text	0000000000000090              _ZN4core3str6traits112_$LT$impl$u20$core..slice..index..SliceIndex$LT$str$GT$$u20$for$u20$core..ops..range..RangeFrom$LT$usize$GT$$GT$5index17h899237a01ac0f75fE
0000000000020ecc l       .gcc_except_table	0000000000000000              GCC_except_table48
0000000000020edc l       .gcc_except_table	0000000000000000              GCC_except_table50
0000000000020eec l       .gcc_except_table	0000000000000000              GCC_except_table53
0000000000000000 l    df *ABS*	0000000000000000              std.868c2b82e02752c5-cgu.0
0000000000084e00 l     F .text	000000000000014b              _ZN3std2io5Write9write_fmt17h6e6c69b2d6337d9bE
000000000008f270 l     F .text	000000000000000b              _ZN4core3ptr81drop_in_place$LT$core..result..Result$LT$$LP$$RP$$C$std..io..error..Error$GT$$GT$17h82fa6a5578b83187E
0000000000020f00 l       .gcc_except_table	0000000000000000              GCC_except_table5
0000000000020f10 l       .gcc_except_table	0000000000000000              GCC_except_table8
00000000000cd388 l     O .bss	0000000000000008              _ZN3std3sys3pal4unix14stack_overflow11thread_info9SPIN_LOCK17h98330c13b81fc2d0E
0000000000020f20 l       .gcc_except_table	0000000000000000              GCC_except_table22
000000000008f600 l     F .text	000000000000017f              _ZN4core3str21_$LT$impl$u20$str$GT$18trim_start_matches17h2e26b632ec4765beE
00000000000a71c0 l     F .text	00000000000001da              _ZN81_$LT$core..str..pattern..CharSearcher$u20$as$u20$core..str..pattern..Searcher$GT$10next_match17h8927af93fe787fa7E
00000000000795f0 l     F .text	00000000000000b7              _ZN114_$LT$std..backtrace_rs..symbolize..gimli..parse_running_mmaps..MapsEntry$u20$as$u20$core..str..traits..FromStr$GT$8from_str28_$u7b$$u7b$closure$u7d$$u7d$17h4fd18d37a54b96beE
000000000008f4f0 l     F .text	000000000000008c              _ZN4core3str11validations15next_code_point17h38295ed3e9872a60E
000000000008d5d0 l     F .text	0000000000000100              _ZN4core3num21_$LT$impl$u20$u64$GT$16from_ascii_radix17h72ad40eebc575d6aE
000000000008f580 l     F .text	0000000000000074              _ZN4core3str21_$LT$impl$u20$str$GT$10split_once17hec9932e2242129fbE
000000000008d6d0 l     F .text	0000000000000174              _ZN4core3num23_$LT$impl$u20$usize$GT$16from_ascii_radix17h7279a7f1accd3813E
00000000000a7610 l     F .text	000000000000007e              _ZN87_$LT$T$u20$as$u20$alloc..slice..$LT$impl$u20$$u5b$T$u5d$$GT$..to_vec_in..ConvertVec$GT$6to_vec17h471728ec5851e8b5E
0000000000020f30 l       .gcc_except_table	0000000000000000              GCC_except_table30
0000000000020f4c l       .gcc_except_table	0000000000000000              GCC_except_table34
00000000000796b0 l     F .text	000000000000000e              _ZN36_$LT$T$u20$as$u20$core..any..Any$GT$7type_id17h360f288438c34f40E
00000000000796c0 l     F .text	000000000000000e              _ZN36_$LT$T$u20$as$u20$core..any..Any$GT$7type_id17ha23c1a8afb1510b7E
00000000000796d0 l     F .text	00000000000005bc              _ZN3std12backtrace_rs5print17BacktraceFrameFmt21print_raw_with_column17h161ddc73ff965c3aE
000000000008ce00 l     F .text	0000000000000013              _ZN44_$LT$$RF$T$u20$as$u20$core..fmt..Display$GT$3fmt17h8785333bdf29958bE
000000000009a820 l     F .text	0000000000000009              _ZN50_$LT$$BP$mut$u20$T$u20$as$u20$core..fmt..Debug$GT$3fmt17h960a1fe81e125d67E
0000000000079c90 l     F .text	0000000000000046              _ZN3std12backtrace_rs9backtrace9libunwind5trace8trace_fn17h489e57788d2e861dE
000000000008eec0 l     F .text	0000000000000042              _ZN4core3ptr66drop_in_place$LT$std..backtrace_rs..backtrace..libunwind..Bomb$GT$17h000ce1eb0eb4d989E
0000000000020f60 l       .gcc_except_table	0000000000000000              GCC_except_table42
0000000000079ce0 l     F .text	00000000000003f5              _ZN3std12backtrace_rs9symbolize5gimli20libs_dl_iterate_phdr8callback17hcdbc0925cfb42137E
000000000008ee70 l     F .text	0000000000000049              _ZN4core3ptr65drop_in_place$LT$std..backtrace_rs..symbolize..gimli..Library$GT$17h6602c7aec777867dE
000000000008eb20 l     F .text	0000000000000018              _ZN4core3ptr47drop_in_place$LT$std..ffi..os_str..OsString$GT$17he5a9ecaa989885e2E
0000000000020f74 l       .gcc_except_table	0000000000000000              GCC_except_table43
000000000007a0e0 l     F .text	0000000000000105              _ZN3std12backtrace_rs9symbolize5gimli3elf15decompress_zlib17hc90975ed87ec4a01E
000000000007a1f0 l     F .text	000000000000037f              _ZN3std12backtrace_rs9symbolize5gimli3elf15locate_build_id17h803858967af4e4d5E
00000000000cd349 l     O .bss	0000000000000001              _ZN3std12backtrace_rs9symbolize5gimli3elf17debug_path_exists17DEBUG_PATH_EXISTS17had2ae7bdc3ac8b95E.0
000000000009dd20 l     F .text	00000000000000dc              _ZN5alloc7raw_vec20RawVecInner$LT$A$GT$7reserve21do_reserve_and_handle17h4960e7c7486f13daE
0000000000020fa8 l       .gcc_except_table	0000000000000000              GCC_except_table45
000000000007a570 l     F .text	00000000000003ea              _ZN3std12backtrace_rs9symbolize5gimli3elf62_$LT$impl$u20$std..backtrace_rs..symbolize..gimli..Mapping$GT$18load_dwarf_package17h85de97fe6d84582dE
000000000007c320 l     F .text	00000000000002f6              _ZN3std12backtrace_rs9symbolize5gimli4mmap17h4b6efe540d9f4b1aE
000000000007b6a0 l     F .text	000000000000074b              _ZN3std12backtrace_rs9symbolize5gimli3elf6Object5parse17he4b3451cfe258daeE
0000000000020fcc l       .gcc_except_table	0000000000000000              GCC_except_table46
000000000007a960 l     F .text	0000000000000c7b              _ZN3std12backtrace_rs9symbolize5gimli3elf62_$LT$impl$u20$std..backtrace_rs..symbolize..gimli..Mapping$GT$9new_debug17h4e45071811c290e6E
000000000008053e l     F .text	0000000000003289              _ZN3std12backtrace_rs9symbolize5gimli7Context3new17hd2865f478b3adb4bE
000000000008ef40 l     F .text	00000000000000dd              _ZN4core3ptr70drop_in_place$LT$std..backtrace_rs..symbolize..gimli..stash..Stash$GT$17h40ebd7f296cb76ecE
0000000000087220 l     F .text	00000000000000cc              _ZN3std3sys2fs4unix12canonicalize17hefad880e24320a9fE
000000000007c180 l     F .text	0000000000000192              _ZN3std12backtrace_rs9symbolize5gimli3elf6Object8build_id17hf4cf9adefc947e7fE
000000000008da30 l     F .text	000000000000001b              _ZN4core3ops8function2Fn4call17h9e1bf0dc8b0751b7E
0000000000089a90 l     F .text	00000000000000b7              _ZN3std3sys3pal6common14small_c_string24run_with_cstr_allocating17h44f205aefaca80daE
000000000002100c l       .gcc_except_table	0000000000000000              GCC_except_table47
000000000007b5e0 l     F .text	00000000000000b4              _ZN3std12backtrace_rs9symbolize5gimli3elf6Object13search_symtab17hdee2efb42ff1e1a8E
0000000000021098 l       .gcc_except_table	0000000000000000              GCC_except_table49
000000000007bdf0 l     F .text	0000000000000381              _ZN3std12backtrace_rs9symbolize5gimli3elf6Object7section17h8bfd15af220d3b16E
0000000000080440 l     F .text	00000000000000fe              _ZN3std12backtrace_rs9symbolize5gimli5stash5Stash8allocate17h9fa4c215cfcd51a4E
00000000000872f0 l     F .text	000000000000019d              _ZN3std3sys2fs4unix4File6open_c17h2441862851fe3232E
0000000000089cc0 l     F .text	00000000000000ae              _ZN3std3sys3pal6common14small_c_string24run_with_cstr_allocating17hf4f3c19c955e9e5cE
0000000000087660 l     F .text	00000000000002c8              _ZN3std3sys2fs4unix9try_statx17hcbcf48d6c61faed8E
00000000000210b4 l       .gcc_except_table	0000000000000000              GCC_except_table52
000000000007c616 l     F .text	0000000000003e26              _ZN3std12backtrace_rs9symbolize5gimli5Cache11with_global17h2edacdb355fa17baE
00000000000cc998 l     O .data	0000000000000940              _ZN3std12backtrace_rs9symbolize5gimli5Cache11with_global14MAPPINGS_CACHE17h9dcffbd0a398e721E
00000000000a68a0 l     F .text	000000000000025e              _ZN62_$LT$std..path..Components$u20$as$u20$core..cmp..PartialEq$GT$2eq17hd73b6a885411943fE
000000000008f160 l     F .text	0000000000000107              _ZN4core3ptr81drop_in_place$LT$$LP$usize$C$std..backtrace_rs..symbolize..gimli..Mapping$RP$$GT$17h991bef9c72d91770E
00000000000a8470 l     F .text	0000000000000495              _ZN9addr2line4unit16ResUnit$LT$R$GT$25find_function_or_location17hae426b15da97a940E
00000000000a8bf0 l     F .text	000000000000057d              _ZN9addr2line6lookup30LoopingLookup$LT$T$C$L$C$F$GT$10new_lookup17hc43eba479066887aE
00000000000a8910 l     F .text	00000000000002d4              _ZN9addr2line4unit16ResUnit$LT$R$GT$25find_function_or_location28_$u7b$$u7b$closure$u7d$$u7d$17h9f68341322b07c8aE
00000000000a1510 l     F .text	0000000000000671              _ZN5gimli4read4unit33DebugInfoUnitHeadersIter$LT$R$GT$4next17h2d844887c3aa5e40E
00000000000a1b90 l     F .text	00000000000025ce              _ZN5gimli4read5dwarf13Unit$LT$R$GT$3new17hac52c5465bdb8f71E
000000000008ef30 l     F .text	0000000000000010              _ZN4core3ptr701drop_in_place$LT$core..result..Result$LT$$RF$core..result..Result$LT$core..option..Option$LT$alloc..boxed..Box$LT$addr2line..unit..DwoUnit$LT$gimli..read..endian_slice..EndianSlice$LT$gimli..endianity..LittleEndian$GT$$GT$$GT$$GT$$C$gimli..read..Error$GT$$C$$LP$$RF$core..result..Result$LT$core..option..Option$LT$alloc..boxed..Box$LT$addr2line..unit..DwoUnit$LT$gimli..read..endian_slice..EndianSlice$LT$gimli..endianity..LittleEndian$GT$$GT$$GT$$GT$$C$gimli..read..Error$GT$$C$core..result..Result$LT$core..option..Option$LT$alloc..boxed..Box$LT$addr2line..unit..DwoUnit$LT$gimli..read..endian_slice..EndianSlice$LT$gimli..endianity..LittleEndian$GT$$GT$$GT$$GT$$C$gimli..read..Error$GT$$RP$$GT$$GT$17h27f73392ae8c9fc8E
000000000008f8d0 l     F .text	000000000000245c              _ZN4core4cell4once17OnceCell$LT$T$GT$8try_init17h1cd3a4ad9380adebE
000000000008e5b0 l     F .text	000000000000009f              _ZN4core3ptr181drop_in_place$LT$core..option..Option$LT$gimli..read..line..IncompleteLineProgram$LT$gimli..read..endian_slice..EndianSlice$LT$gimli..endianity..LittleEndian$GT$$C$usize$GT$$GT$$GT$17h7e8bbe2246cc23a7E
000000000008e0a0 l     F .text	000000000000004b              _ZN4core3ptr137drop_in_place$LT$gimli..read..dwarf..Unit$LT$gimli..read..endian_slice..EndianSlice$LT$gimli..endianity..LittleEndian$GT$$C$usize$GT$$GT$17hcf9f033af171f6acE
000000000008e330 l     F .text	000000000000005c              _ZN4core3ptr159drop_in_place$LT$alloc..sync..ArcInner$LT$gimli..read..dwarf..Dwarf$LT$gimli..read..endian_slice..EndianSlice$LT$gimli..endianity..LittleEndian$GT$$GT$$GT$$GT$17h715233f6777e48faE
00000000000210d8 l       .gcc_except_table	0000000000000000              GCC_except_table53
0000000000021270 l       .gcc_except_table	0000000000000000              GCC_except_table54
000000000008ef10 l     F .text	000000000000001f              _ZN4core3ptr69drop_in_place$LT$std..backtrace_rs..symbolize..gimli..elf..Object$GT$17he5699be0018dfc01E
000000000009d450 l     F .text	0000000000000042              _ZN5alloc5alloc15exchange_malloc17hd05661b5acd38f93E
00000000000a4e90 l     F .text	00000000000002a1              _ZN5gimli4read7aranges30ArangeHeader$LT$R$C$Offset$GT$5parse17h3d377185056978c1E
000000000009f250 l     F .text	0000000000001454              _ZN5gimli4read4unit15parse_attribute17h86b0f36c1e96ab0cE
00000000000a0c10 l     F .text	0000000000000562              _ZN5gimli4read4unit18Attribute$LT$R$GT$5value17h864cdb7d185d00ccE
00000000000a5140 l     F .text	0000000000000ecd              _ZN5gimli4read8rnglists20RngListIter$LT$R$GT$4next17hb670493ae8924287E
000000000008dcc0 l     F .text	00000000000000f3              _ZN4core3ptr129drop_in_place$LT$addr2line..unit..ResUnit$LT$gimli..read..endian_slice..EndianSlice$LT$gimli..endianity..LittleEndian$GT$$GT$$GT$17h7afcad4cfe227da9E
000000000008e230 l     F .text	00000000000000f5              _ZN4core3ptr152drop_in_place$LT$alloc..vec..Vec$LT$addr2line..unit..SupUnit$LT$gimli..read..endian_slice..EndianSlice$LT$gimli..endianity..LittleEndian$GT$$GT$$GT$$GT$17h46e86bed76633eefE
000000000008de10 l     F .text	00000000000000dd              _ZN4core3ptr130drop_in_place$LT$addr2line..unit..ResUnits$LT$gimli..read..endian_slice..EndianSlice$LT$gimli..endianity..LittleEndian$GT$$GT$$GT$17h54e2d8935db38017E
000000000008e450 l     F .text	000000000000006c              _ZN4core3ptr172drop_in_place$LT$core..result..Result$LT$addr2line..Context$LT$gimli..read..endian_slice..EndianSlice$LT$gimli..endianity..LittleEndian$GT$$GT$$C$gimli..read..Error$GT$$GT$17hc3e4004808397696E
00000000000a4350 l     F .text	00000000000008d9              _ZN5gimli4read5index18UnitIndex$LT$R$GT$5parse17h6c3119cb799b4977E
000000000008dc50 l     F .text	0000000000000062              _ZN4core3ptr123drop_in_place$LT$addr2line..Context$LT$gimli..read..endian_slice..EndianSlice$LT$gimli..endianity..LittleEndian$GT$$GT$$GT$17h2c89cebb1a38f2e6E
000000000008f2f0 l     F .text	00000000000000f9              _ZN4core3ptr92drop_in_place$LT$core..result..Result$LT$addr2line..line..Lines$C$gimli..read..Error$GT$$GT$17h9ddc7b9153485488E
000000000008ddc0 l     F .text	000000000000004b              _ZN4core3ptr129drop_in_place$LT$addr2line..unit..SupUnit$LT$gimli..read..endian_slice..EndianSlice$LT$gimli..endianity..LittleEndian$GT$$GT$$GT$17ha2bbc994989ea087E
000000000008e160 l     F .text	00000000000000c6              _ZN4core3ptr152drop_in_place$LT$alloc..vec..Vec$LT$addr2line..unit..ResUnit$LT$gimli..read..endian_slice..EndianSlice$LT$gimli..endianity..LittleEndian$GT$$GT$$GT$$GT$17hfb0d52ec59986731E
000000000008dfd0 l     F .text	000000000000005c              _ZN4core3ptr130drop_in_place$LT$gimli..read..dwarf..Dwarf$LT$gimli..read..endian_slice..EndianSlice$LT$gimli..endianity..LittleEndian$GT$$GT$$GT$17ha99299db60df4330E
0000000000021284 l       .gcc_except_table	0000000000000000              GCC_except_table55
0000000000089860 l     F .text	0000000000000089              _ZN3std3sys3pal4unix17decode_error_kind17hc95cbc61175511a6E
000000000008e9e0 l     F .text	00000000000000a4              _ZN4core3ptr42drop_in_place$LT$std..io..error..Error$GT$17h12f8d9468d04cc18E
000000000002139c l       .gcc_except_table	0000000000000000              GCC_except_table59
0000000000084720 l     F .text	00000000000002fd              _ZN3std2io19default_read_to_end17hc62cfb5419f82c24E
00000000000213e8 l       .gcc_except_table	0000000000000000              GCC_except_table62
0000000000083d00 l     F .text	0000000000000182              _ZN3std2fs24buffer_capacity_required17hb39b5fdfb90985d7E
000000000002141c l       .gcc_except_table	0000000000000000              GCC_except_table63
000000000002142c l       .gcc_except_table	0000000000000000              GCC_except_table76
0000000000021448 l       .gcc_except_table	0000000000000000              GCC_except_table77
000000000009d4a0 l     F .text	0000000000000071              _ZN5alloc7raw_vec11finish_grow17h5a9a3156e0043873E
0000000000084410 l     F .text	000000000000030d              _ZN3std2io19default_read_to_end17h8598e8037528987eE
000000000002145c l       .gcc_except_table	0000000000000000              GCC_except_table96
0000000000084210 l     F .text	00000000000000f8              _ZN3std2io19default_read_to_end16small_probe_read17h51cb7aa6a2ee5b0dE
0000000000084310 l     F .text	00000000000000f8              _ZN3std2io19default_read_to_end16small_probe_read17hce0ea226e2dd7816E
0000000000084a20 l     F .text	00000000000001ca              _ZN3std2io5Write18write_all_vectored17he1bf9cc11b2e25c5E
0000000000084bf0 l     F .text	00000000000000bd              _ZN3std2io5Write9write_all17h94722749f271c2b8E
0000000000084cb0 l     F .text	000000000000014b              _ZN3std2io5Write9write_fmt17h35f403a9ac730d56E
000000000002146c l       .gcc_except_table	0000000000000000              GCC_except_table107
0000000000021494 l       .gcc_except_table	0000000000000000              GCC_except_table108
0000000000084f50 l     F .text	000000000000014b              _ZN3std2io5Write9write_fmt17hbf5cebcad70aeb70E
00000000000214bc l       .gcc_except_table	0000000000000000              GCC_except_table109
000000000008e030 l     F .text	0000000000000069              _ZN4core3ptr131drop_in_place$LT$alloc..boxed..Box$LT$dyn$u20$core..ops..function..FnOnce$LT$$LP$$RP$$GT$$u2b$Output$u20$$u3d$$u20$$LP$$RP$$GT$$GT$17h29eab55998f17fa0E
00000000000214e4 l       .gcc_except_table	0000000000000000              GCC_except_table112
000000000002150c l       .gcc_except_table	0000000000000000              GCC_except_table113
0000000000021524 l       .gcc_except_table	0000000000000000              GCC_except_table114
000000000002153c l       .gcc_except_table	0000000000000000              GCC_except_table116
00000000000854c0 l     F .text	000000000000015a              _ZN3std2io5impls74_$LT$impl$u20$std..io..Write$u20$for$u20$alloc..vec..Vec$LT$u8$C$A$GT$$GT$14write_vectored17h83b23a5caba92ba6E
0000000000085620 l     F .text	0000000000000003              _ZN3std2io5impls74_$LT$impl$u20$std..io..Write$u20$for$u20$alloc..vec..Vec$LT$u8$C$A$GT$$GT$17is_write_vectored17h6a387ce9310f0564E
0000000000085630 l     F .text	000000000000013c              _ZN3std2io5impls74_$LT$impl$u20$std..io..Write$u20$for$u20$alloc..vec..Vec$LT$u8$C$A$GT$$GT$18write_all_vectored17h1c98cb2cd43e6711E
0000000000085770 l     F .text	0000000000000003              _ZN3std2io5impls74_$LT$impl$u20$std..io..Write$u20$for$u20$alloc..vec..Vec$LT$u8$C$A$GT$$GT$5flush17h57d1eb660c5e012aE
0000000000085780 l     F .text	000000000000006b              _ZN3std2io5impls74_$LT$impl$u20$std..io..Write$u20$for$u20$alloc..vec..Vec$LT$u8$C$A$GT$$GT$5write17h58e9bd0a57e0d0a7E
00000000000857f0 l     F .text	0000000000000067              _ZN3std2io5impls74_$LT$impl$u20$std..io..Write$u20$for$u20$alloc..vec..Vec$LT$u8$C$A$GT$$GT$9write_all17ha40e5c05dee68c40E
00000000000cd34a l     O .bss	0000000000000001              _ZN3std2io5stdio19OUTPUT_CAPTURE_USED17hdce587591ce81059E.0
00000000000000c8 l       .tbss	0000000000000010              _ZN3std2io5stdio14OUTPUT_CAPTURE29_$u7b$$u7b$constant$u7d$$u7d$28_$u7b$$u7b$closure$u7d$$u7d$3VAL17ha2b5c438c6d6c128E
00000000000870b0 l     F .text	0000000000000019              _ZN3std3sys12thread_local6native5eager7destroy17h4a6eaac9645a7f61E
0000000000021554 l       .gcc_except_table	0000000000000000              GCC_except_table123
0000000000021568 l       .gcc_except_table	0000000000000000              GCC_except_table124
0000000000085920 l     F .text	0000000000000236              _ZN3std2io5stdio31print_to_buffer_if_capture_used17h5c8ab0a5a7707b6fE
0000000000021578 l       .gcc_except_table	0000000000000000              GCC_except_table125
000000000008eab0 l     F .text	0000000000000064              _ZN4core3ptr46drop_in_place$LT$std..io..stdio..StdinLock$GT$17hdf0802ad6b7fcda4E
000000000002158c l       .gcc_except_table	0000000000000000              GCC_except_table126
00000000000215a8 l       .gcc_except_table	0000000000000000              GCC_except_table129
00000000000cd3e0 l     O .bss	0000000000000008              _ZN3std6thread8ThreadId3new7COUNTER17hd1bb565e18b1dddaE
000000000008c190 l     F .text	000000000000003b              _ZN3std6thread8ThreadId3new9exhausted17h392387b83266f6e7E
00000000000cd2d8 l     O .data	0000000000000040              _ZN3std2io5stdio6STDOUT17h107d892ee0bc4a5aE
000000000008bdf7 l     F .text	0000000000000054              _ZN3std4sync9once_lock17OnceLock$LT$T$GT$10initialize17hc7e9139c15f4b62fE
00000000000215cc l       .gcc_except_table	0000000000000000              GCC_except_table132
00000000000215f0 l       .gcc_except_table	0000000000000000              GCC_except_table134
0000000000085d80 l     F .text	0000000000000235              _ZN3std2io8buffered9bufwriter18BufWriter$LT$W$GT$9flush_buf17h8b6049b6b481bdfeE
000000000008f280 l     F .text	0000000000000050              _ZN4core3ptr90drop_in_place$LT$std..io..buffered..bufwriter..BufWriter$LT$W$GT$..flush_buf..BufGuard$GT$17h9c7049a830d214beE
0000000000021614 l       .gcc_except_table	0000000000000000              GCC_except_table138
0000000000021638 l       .gcc_except_table	0000000000000000              GCC_except_table156
000000000002164c l       .gcc_except_table	0000000000000000              GCC_except_table166
0000000000085fc0 l     F .text	000000000000004a              _ZN3std2rt15handle_rt_panic17h6ce74e3ed80cea21E
00000000000cd3a8 l     O .bss	0000000000000001              _ZN3std3sys3pal4unix24ON_BROKEN_PIPE_FLAG_USED17h7fb591fb465238b3E.0
00000000000cd3a0 l     O .bss	0000000000000008              _ZN3std3sys3pal4unix14stack_overflow3imp9PAGE_SIZE17hfd043d49b4f51bbfE.0
00000000000cd398 l     O .bss	0000000000000001              _ZN3std3sys3pal4unix14stack_overflow3imp13NEED_ALTSTACK17h82a455951330d974E.0
0000000000089060 l     F .text	000000000000041a              _ZN3std3sys3pal4unix14stack_overflow3imp12make_handler17h4e2465ba5931c526E
00000000000cd390 l     O .bss	0000000000000008              _ZN3std3sys3pal4unix14stack_overflow3imp13MAIN_ALTSTACK17hf1e48bc7fe945e53E.0
0000000000087c90 l     F .text	0000000000000e7a              _ZN3std3sys3pal4unix14stack_overflow11thread_info16set_current_info17h0bc1344e9088c04bE
0000000000089480 l     F .text	00000000000003d3              _ZN3std3sys3pal4unix14stack_overflow3imp14signal_handler17h4a2710ef105ede66E
00000000000cd3b0 l     O .bss	0000000000000008              _ZN3std3sys4args4unix3imp4ARGC17h49122584723b9b3dE.0
00000000000cd3b8 l     O .bss	0000000000000008              _ZN3std3sys4args4unix3imp4ARGV17h0ac9d5e6930b594cE.0
00000000000cd3d8 l     O .bss	0000000000000008              _ZN3std6thread11main_thread4MAIN17h883ab5a9521a1a97E.0
00000000000cd318 l     O .data	0000000000000004              _ZN3std2rt7cleanup7CLEANUP17h4a7d255ef06e714fE
00000000000cd350 l     O .bss	0000000000000008              _ZN3std3sys10exit_guard18unique_thread_exit17EXITING_THREAD_ID17h7757e0e999f02fe0E
00000000000000e8 l       .tbss	0000000000000010              _ZN3std9panicking11panic_count17LOCAL_PANIC_COUNT29_$u7b$$u7b$constant$u7d$$u7d$28_$u7b$$u7b$closure$u7d$$u7d$3VAL17h4b07a7461e56e372E
0000000000021660 l       .gcc_except_table	0000000000000000              GCC_except_table184
00000000000216a0 l       .gcc_except_table	0000000000000000              GCC_except_table186
0000000000087490 l     F .text	00000000000001ca              _ZN3std3sys2fs4unix8readlink17h76fe56ed281d29a3E
00000000000216bc l       .gcc_except_table	0000000000000000              GCC_except_table187
00000000000216d0 l       .gcc_except_table	0000000000000000              GCC_except_table188
0000000000087b20 l     F .text	0000000000000153              _ZN3std3sys3env4unix6getenv28_$u7b$$u7b$closure$u7d$$u7d$17h750b9b3f51aa93d5E
0000000000089c10 l     F .text	00000000000000ae              _ZN3std3sys3pal6common14small_c_string24run_with_cstr_allocating17he97eae9e466dd391E
00000000000216e0 l       .gcc_except_table	0000000000000000              GCC_except_table191
00000000000216f8 l       .gcc_except_table	0000000000000000              GCC_except_table192
00000000000cd35c l     O .bss	000000000000000c              _ZN3std3sys3env4unix8ENV_LOCK17h7e6e456c74cb5977E
0000000000021714 l       .gcc_except_table	0000000000000000              GCC_except_table193
0000000000021760 l       .gcc_except_table	0000000000000000              GCC_except_table194
0000000000021774 l       .gcc_except_table	0000000000000000              GCC_except_table199
0000000000021780 l       .gcc_except_table	0000000000000000              GCC_except_table201
00000000000217a4 l       .gcc_except_table	0000000000000000              GCC_except_table205
00000000000899c0 l     F .text	00000000000000c9              _ZN3std3sys3pal4unix4time8Timespec3now17he3393f6eae6c41e2E
00000000000898f0 l     F .text	00000000000000cb              _ZN3std3sys3pal4unix4time8Timespec12sub_timespec17h82f7c4761de50e14E
00000000000217b8 l       .gcc_except_table	0000000000000000              GCC_except_table213
0000000000086db0 l     F .text	000000000000000c              _ZN3std3sys11personality3gcc14find_eh_action28_$u7b$$u7b$closure$u7d$$u7d$17h316653238ffb9da8E
0000000000086dc0 l     F .text	000000000000000c              _ZN3std3sys11personality3gcc14find_eh_action28_$u7b$$u7b$closure$u7d$$u7d$17hbdb0f2dc5a4bed9dE
00000000000cd320 l     O .data	0000000000000008              _rust_extern_with_linkage_868c2b82e02752c5___dso_handle
0000000000000000 l       .tdata	0000000000000020              _ZN3std3sys12thread_local11destructors4list5DTORS17h48c9fec5c3bfb5bfE
0000000000086ed0 l     F .text	00000000000000db              _ZN3std3sys12thread_local5guard3key6enable17hb6a83d7d94a94649E
00000000000217ec l       .gcc_except_table	0000000000000000              GCC_except_table236
00000000000cd328 l     O .data	0000000000000010              _ZN3std3sys12thread_local5guard3key6enable5DTORS17hd132ad3c8babe5a9E
0000000000086fb0 l     F .text	00000000000000fd              _ZN3std3sys12thread_local5guard3key6enable3run17h914cb8186ecaf86aE
00000000000217fc l       .gcc_except_table	0000000000000000              GCC_except_table238
0000000000021810 l       .gcc_except_table	0000000000000000              GCC_except_table240
000000000008d850 l     F .text	00000000000000db              _ZN4core3ops8function2Fn4call17h06718a1637d6e3ffE
0000000000089b50 l     F .text	00000000000000b1              _ZN3std3sys3pal6common14small_c_string24run_with_cstr_allocating17h691e68f82910fc02E
000000000002182c l       .gcc_except_table	0000000000000000              GCC_except_table262
0000000000021860 l       .gcc_except_table	0000000000000000              GCC_except_table266
00000000000218ac l       .gcc_except_table	0000000000000000              GCC_except_table281
00000000000cd358 l     O .bss	0000000000000001              _ZN3std3sys2fs4unix9try_statx17STATX_SAVED_STATE17h930ab64832da022fE.0
00000000000218c8 l       .gcc_except_table	0000000000000000              GCC_except_table283
000000000008d950 l     F .text	00000000000000d8              _ZN4core3ops8function2Fn4call17h234a4f42be377d21E
00000000000218dc l       .gcc_except_table	0000000000000000              GCC_except_table291
000000000008d930 l     F .text	000000000000001b              _ZN4core3ops8function2Fn4call17h1cc163500653e562E
0000000000021900 l       .gcc_except_table	0000000000000000              GCC_except_table296
000000000002191c l       .gcc_except_table	0000000000000000              GCC_except_table313
0000000000021930 l       .gcc_except_table	0000000000000000              GCC_except_table314
0000000000021954 l       .gcc_except_table	0000000000000000              GCC_except_table315
0000000000087c80 l     F .text	000000000000000a              _ZN3std3sys3pal4unix14abort_internal17hdfd43822c16e57a9E
00000000000cd380 l     O .bss	0000000000000008              _ZN3std3sys3pal4unix14stack_overflow11thread_info4LOCK17h49b15cc8187b5852E
00000000000cd368 l     O .bss	0000000000000008              _ZN3std3sys3pal4unix14stack_overflow11thread_info11THREAD_INFO17h96238771e5d52f19E.0
00000000000cd370 l     O .bss	0000000000000008              _ZN3std3sys3pal4unix14stack_overflow11thread_info11THREAD_INFO17h96238771e5d52f19E.1
00000000000cd378 l     O .bss	0000000000000008              _ZN3std3sys3pal4unix14stack_overflow11thread_info11THREAD_INFO17h96238771e5d52f19E.2
000000000009bb30 l     F .text	00000000000001b1              _ZN5alloc11collections5btree4node208Handle$LT$alloc..collections..btree..node..NodeRef$LT$alloc..collections..btree..node..marker..Mut$C$K$C$V$C$alloc..collections..btree..node..marker..Leaf$GT$$C$alloc..collections..btree..node..marker..KV$GT$5split17hf6fd142e98b114fdE
000000000009bcf0 l     F .text	000000000000026f              _ZN5alloc11collections5btree4node212Handle$LT$alloc..collections..btree..node..NodeRef$LT$alloc..collections..btree..node..marker..Mut$C$K$C$V$C$alloc..collections..btree..node..marker..Internal$GT$$C$alloc..collections..btree..node..marker..KV$GT$5split17hc55576b20ea574a7E
000000000008e740 l     F .text	0000000000000067              _ZN4core3ptr194drop_in_place$LT$core..result..Result$LT$std..sync..poison..mutex..MutexGuard$LT$$LP$$RP$$GT$$C$std..sync..poison..PoisonError$LT$std..sync..poison..mutex..MutexGuard$LT$$LP$$RP$$GT$$GT$$GT$$GT$17h39320890e9c2bc3cE
0000000000021978 l       .gcc_except_table	0000000000000000              GCC_except_table318
0000000000088b10 l     F .text	000000000000054f              _ZN3std3sys3pal4unix14stack_overflow3imp12drop_handler17h60b88169bbae5bc4E
000000000009c9e0 l     F .text	00000000000008af              _ZN5alloc11collections5btree6remove259_$LT$impl$u20$alloc..collections..btree..node..Handle$LT$alloc..collections..btree..node..NodeRef$LT$alloc..collections..btree..node..marker..Mut$C$K$C$V$C$alloc..collections..btree..node..marker..Leaf$GT$$C$alloc..collections..btree..node..marker..KV$GT$$GT$14remove_leaf_kv17h64acca39b042ceb5E
00000000000219e0 l       .gcc_except_table	0000000000000000              GCC_except_table319
0000000000021a04 l       .gcc_except_table	0000000000000000              GCC_except_table320
000000000008c160 l     F .text	0000000000000029              _ZN3std6thread7current13current_os_id17he6044d0d41e81111E
0000000000021a34 l       .gcc_except_table	0000000000000000              GCC_except_table321
0000000000021a58 l       .gcc_except_table	0000000000000000              GCC_except_table327
0000000000021a70 l       .gcc_except_table	0000000000000000              GCC_except_table328
0000000000021a84 l       .gcc_except_table	0000000000000000              GCC_except_table330
0000000000021aac l       .gcc_except_table	0000000000000000              GCC_except_table334
0000000000021ac0 l       .gcc_except_table	0000000000000000              GCC_except_table335
0000000000021ad4 l       .gcc_except_table	0000000000000000              GCC_except_table338
0000000000021ae8 l       .gcc_except_table	0000000000000000              GCC_except_table339
0000000000021afc l       .gcc_except_table	0000000000000000              GCC_except_table340
0000000000021b10 l       .gcc_except_table	0000000000000000              GCC_except_table341
0000000000021b24 l       .gcc_except_table	0000000000000000              GCC_except_table343
0000000000021b50 l       .gcc_except_table	0000000000000000              GCC_except_table344
0000000000021b68 l       .gcc_except_table	0000000000000000              GCC_except_table357
0000000000021b9c l       .gcc_except_table	0000000000000000              GCC_except_table358
0000000000021bbc l       .gcc_except_table	0000000000000000              GCC_except_table359
0000000000021bf0 l       .gcc_except_table	0000000000000000              GCC_except_table360
0000000000021c0c l       .gcc_except_table	0000000000000000              GCC_except_table361
0000000000021c84 l       .gcc_except_table	0000000000000000              GCC_except_table362
0000000000021cc0 l       .gcc_except_table	0000000000000000              GCC_except_table364
0000000000021cd8 l       .gcc_except_table	0000000000000000              GCC_except_table365
0000000000021cf4 l       .gcc_except_table	0000000000000000              GCC_except_table369
0000000000021d18 l       .gcc_except_table	0000000000000000              GCC_except_table370
0000000000021de8 l       .gcc_except_table	0000000000000000              GCC_except_table371
0000000000021e04 l       .gcc_except_table	0000000000000000              GCC_except_table373
0000000000021e18 l       .gcc_except_table	0000000000000000              GCC_except_table374
0000000000021ee8 l       .gcc_except_table	0000000000000000              GCC_except_table375
0000000000021efc l       .gcc_except_table	0000000000000000              GCC_except_table376
0000000000021f10 l       .gcc_except_table	0000000000000000              GCC_except_table377
0000000000021f44 l       .gcc_except_table	0000000000000000              GCC_except_table379
0000000000021f58 l       .gcc_except_table	0000000000000000              GCC_except_table382
0000000000021f70 l       .gcc_except_table	0000000000000000              GCC_except_table383
0000000000021f8c l       .gcc_except_table	0000000000000000              GCC_except_table384
000000000008a4a0 l     F .text	000000000000014c              _ZN3std3sys9backtrace10_print_fmt28_$u7b$$u7b$closure$u7d$$u7d$17h2e14b4e019ab1f38E
0000000000021fa8 l       .gcc_except_table	0000000000000000              GCC_except_table385
000000000008a5f0 l     F .text	000000000000001a              _ZN3std3sys9backtrace10_print_fmt28_$u7b$$u7b$closure$u7d$$u7d$17h3133494cd80ace16E
000000000008a910 l     F .text	0000000000000119              _ZN3std3sys9backtrace15output_filename17h3e7fd93c8669d4d1E
000000000008a610 l     F .text	0000000000000298              _ZN3std3sys9backtrace10_print_fmt28_$u7b$$u7b$closure$u7d$$u7d$28_$u7b$$u7b$closure$u7d$$u7d$17h60c31afec5e3af16E
000000000009a940 l     F .text	000000000000085d              _ZN55_$LT$$RF$str$u20$as$u20$core..str..pattern..Pattern$GT$15is_contained_in17hbec7160a0e3b1a28E
0000000000021fbc l       .gcc_except_table	0000000000000000              GCC_except_table387
000000000008a8b0 l     F .text	0000000000000058              _ZN3std3sys9backtrace13BacktraceLock5print17hf67a46baa621998eE
000000000008c910 l     F .text	00000000000000d2              _ZN3std9panicking13panic_handler28_$u7b$$u7b$closure$u7d$$u7d$17had89ddd01b6112c9E
00000000000cd3c0 l     O .bss	0000000000000008              _ZN3std3sys9backtrace4lock4LOCK17h43cd06982923b067E
000000000008aab0 l     F .text	0000000000000150              _ZN3std4path10Components15len_before_body17h0138292f5cb2136dE
000000000008ac00 l     F .text	00000000000000f0              _ZN3std4path10Components25parse_next_component_back17hc4c608ffd6ba89f1E
00000000000a6790 l     F .text	00000000000000bc              _ZN61_$LT$std..path..Component$u20$as$u20$core..cmp..PartialEq$GT$2eq17h61436d841303d2f4E
0000000000021fdc l       .gcc_except_table	0000000000000000              GCC_except_table400
0000000000021ff0 l       .gcc_except_table	0000000000000000              GCC_except_table405
0000000000022004 l       .gcc_except_table	0000000000000000              GCC_except_table406
0000000000022018 l       .gcc_except_table	0000000000000000              GCC_except_table407
000000000002204c l       .gcc_except_table	0000000000000000              GCC_except_table408
000000000002206c l       .gcc_except_table	0000000000000000              GCC_except_table409
0000000000022080 l       .gcc_except_table	0000000000000000              GCC_except_table411
0000000000022094 l       .gcc_except_table	0000000000000000              GCC_except_table421
000000000008ba40 l     F .text	0000000000000084              _ZN3std4sync6poison4once4Once15call_once_force28_$u7b$$u7b$closure$u7d$$u7d$17h1d83714d90867219E
000000000008bad0 l     F .text	0000000000000049              _ZN3std4sync6poison4once4Once15call_once_force28_$u7b$$u7b$closure$u7d$$u7d$17h5607c268a2309c9dE
00000000000220a8 l       .gcc_except_table	0000000000000000              GCC_except_table425
00000000000220c0 l       .gcc_except_table	0000000000000000              GCC_except_table426
000000000008bb20 l     F .text	000000000000020b              _ZN3std4sync6poison4once4Once9call_once28_$u7b$$u7b$closure$u7d$$u7d$17h003b278880eab886E
000000000008f3f0 l     F .text	00000000000000fa              _ZN4core3ptr95drop_in_place$LT$std..io..buffered..linewriter..LineWriter$LT$std..io..stdio..StdoutRaw$GT$$GT$17hb7471cb22d310853E
000000000008bd9f l     F .text	0000000000000058              _ZN3std4sync9once_lock17OnceLock$LT$T$GT$10initialize17h418a30085bb5fc14E
000000000008e570 l     F .text	0000000000000035              _ZN4core3ptr175drop_in_place$LT$std..sync..reentrant_lock..ReentrantLockGuard$LT$core..cell..RefCell$LT$std..io..buffered..linewriter..LineWriter$LT$std..io..stdio..StdoutRaw$GT$$GT$$GT$$GT$17h99f026269de13a48E
00000000000220d4 l       .gcc_except_table	0000000000000000              GCC_except_table429
000000000008bd30 l     F .text	000000000000006f              _ZN3std4sync6poison5mutex14Mutex$LT$T$GT$4lock17hd95f7be833787b30E
0000000000022104 l       .gcc_except_table	0000000000000000              GCC_except_table438
000000000002211c l       .gcc_except_table	0000000000000000              GCC_except_table449
00000000000cd3d0 l     O .bss	0000000000000001              _ZN3std5panic14SHOULD_CAPTURE17h29de6e05b6dea06fE
0000000000022134 l       .gcc_except_table	0000000000000000              GCC_except_table455
0000000000022158 l       .gcc_except_table	0000000000000000              GCC_except_table457
0000000000022224 l       .gcc_except_table	0000000000000000              GCC_except_table458
0000000000022240 l       .gcc_except_table	0000000000000000              GCC_except_table462
0000000000022254 l       .gcc_except_table	0000000000000000              GCC_except_table471
0000000000022260 l       .gcc_except_table	0000000000000000              GCC_except_table472
0000000000022278 l       .gcc_except_table	0000000000000000              GCC_except_table479
00000000000222d4 l       .gcc_except_table	0000000000000000              GCC_except_table480
0000000000022334 l       .gcc_except_table	0000000000000000              GCC_except_table486
0000000000022380 l       .gcc_except_table	0000000000000000              GCC_except_table495
00000000000223d4 l       .gcc_except_table	0000000000000000              GCC_except_table496
00000000000223e8 l       .gcc_except_table	0000000000000000              GCC_except_table500
0000000000022408 l       .gcc_except_table	0000000000000000              GCC_except_table503
0000000000022418 l       .gcc_except_table	0000000000000000              GCC_except_table505
000000000008c383 l     F .text	000000000000018f              _ZN3std9panicking12default_hook28_$u7b$$u7b$closure$u7d$$u7d$17h391aa815d5e47ec8E
000000000008dc20 l     F .text	0000000000000010              _ZN4core3ptr109drop_in_place$LT$alloc..sync..Arc$LT$std..sync..poison..mutex..Mutex$LT$alloc..vec..Vec$LT$u8$GT$$GT$$GT$$GT$17h7e8b3fe40b07ecceE
0000000000022438 l       .gcc_except_table	0000000000000000              GCC_except_table514
000000000008c520 l     F .text	0000000000000336              _ZN3std9panicking12default_hook28_$u7b$$u7b$closure$u7d$$u7d$28_$u7b$$u7b$closure$u7d$$u7d$17h1d8d78d12b200f4fE
00000000000cd338 l     O .data	0000000000000001              _ZN3std9panicking12default_hook28_$u7b$$u7b$closure$u7d$$u7d$11FIRST_PANIC17h8cb702809a1b4b11E
000000000002244c l       .gcc_except_table	0000000000000000              GCC_except_table515
000000000008cd70 l     F .text	0000000000000086              _ZN44_$LT$$RF$T$u20$as$u20$core..fmt..Display$GT$3fmt17h5bf1ec45183414beE
000000000002245c l       .gcc_except_table	0000000000000000              GCC_except_table516
000000000008c860 l     F .text	00000000000000aa              _ZN3std9panicking13panic_handler19FormatStringPayload4fill17h2799dc0f98a4580fE
0000000000022488 l       .gcc_except_table	0000000000000000              GCC_except_table517
0000000000022498 l       .gcc_except_table	0000000000000000              GCC_except_table518
00000000000224ac l       .gcc_except_table	0000000000000000              GCC_except_table519
000000000008f2d0 l     F .text	000000000000001d              _ZN4core3ptr91drop_in_place$LT$std..sync..poison..rwlock..RwLockReadGuard$LT$std..panicking..Hook$GT$$GT$17hb49f7972ca02a80dE
000000000009a930 l     F .text	0000000000000010              _ZN52_$LT$$RF$mut$u20$T$u20$as$u20$core..fmt..Display$GT$3fmt17h3b34801f46602aa6E
00000000000224c4 l       .gcc_except_table	0000000000000000              GCC_except_table521
00000000000224e8 l       .gcc_except_table	0000000000000000              GCC_except_table523
0000000000022510 l       .gcc_except_table	0000000000000000              GCC_except_table524
000000000008ccf0 l     F .text	0000000000000013              _ZN42_$LT$$RF$T$u20$as$u20$core..fmt..Debug$GT$3fmt17h0633944e3bbac2c7E
0000000000022534 l       .gcc_except_table	0000000000000000              GCC_except_table533
000000000008cd10 l     F .text	0000000000000026              _ZN42_$LT$$RF$T$u20$as$u20$core..fmt..Debug$GT$3fmt17h965cc9516d1e3c44E
000000000008cd40 l     F .text	0000000000000010              _ZN42_$LT$$RF$T$u20$as$u20$core..fmt..Debug$GT$3fmt17hcf40e5f667d17a4bE
000000000008cd50 l     F .text	0000000000000015              _ZN42_$LT$$RF$T$u20$as$u20$core..fmt..Debug$GT$3fmt17he045ff21d650d216E
000000000008cfe0 l     F .text	0000000000000023              _ZN4core3fmt3num50_$LT$impl$u20$core..fmt..Debug$u20$for$u20$i32$GT$3fmt17h27e1f960e92162ceE
0000000000022548 l       .gcc_except_table	0000000000000000              GCC_except_table583
000000000002255c l       .gcc_except_table	0000000000000000              GCC_except_table584
000000000008d010 l     F .text	0000000000000177              _ZN4core3fmt5Write10write_char17h3f2a830029454542E
0000000000022570 l       .gcc_except_table	0000000000000000              GCC_except_table585
000000000008d190 l     F .text	00000000000000d6              _ZN4core3fmt5Write10write_char17h5a75a622cd0aff4dE
0000000000022584 l       .gcc_except_table	0000000000000000              GCC_except_table586
000000000008d270 l     F .text	00000000000000e5              _ZN4core3fmt5Write10write_char17hd31a8219c4f4af3fE
000000000008d360 l     F .text	0000000000000122              _ZN4core3fmt5Write10write_char17hd8f5e9865c4fb249E
0000000000022598 l       .gcc_except_table	0000000000000000              GCC_except_table588
000000000008d490 l     F .text	0000000000000036              _ZN4core3fmt5Write9write_fmt17h040b1b5c348e1d0eE
000000000008d4d0 l     F .text	0000000000000036              _ZN4core3fmt5Write9write_fmt17h3b9198f8d63fc21aE
000000000008d510 l     F .text	0000000000000036              _ZN4core3fmt5Write9write_fmt17h74aaec30a2cc7429E
000000000008d550 l     F .text	0000000000000036              _ZN4core3fmt5Write9write_fmt17h8704a2badb153251E
000000000008d590 l     F .text	0000000000000036              _ZN4core3fmt5Write9write_fmt17hdd1c803a89481fecE
00000000000225ac l       .gcc_except_table	0000000000000000              GCC_except_table609
000000000008da50 l     F .text	0000000000000005              _ZN4core3ops8function6FnOnce40call_once$u7b$$u7b$vtable.shim$u7d$$u7d$17h2d68ce2c06916143E
000000000008da60 l     F .text	000000000000000c              _ZN4core3ops8function6FnOnce40call_once$u7b$$u7b$vtable.shim$u7d$$u7d$17h2f578c2456ccc1c1E
000000000008da70 l     F .text	0000000000000005              _ZN4core3ops8function6FnOnce40call_once$u7b$$u7b$vtable.shim$u7d$$u7d$17h6961f50a91d94326E
000000000008da80 l     F .text	000000000000001e              _ZN4core3ops8function6FnOnce40call_once$u7b$$u7b$vtable.shim$u7d$$u7d$17ha26cd924e7d44370E
00000000000225c0 l       .gcc_except_table	0000000000000000              GCC_except_table616
000000000008daa0 l     F .text	0000000000000084              _ZN4core3ops8function6FnOnce40call_once$u7b$$u7b$vtable.shim$u7d$$u7d$17hd328cdf29560c9b8E
000000000008db30 l     F .text	0000000000000049              _ZN4core3ops8function6FnOnce40call_once$u7b$$u7b$vtable.shim$u7d$$u7d$17hdb5915877b7ecdbbE
000000000008db80 l     F .text	0000000000000082              _ZN4core3ops8function6FnOnce40call_once$u7b$$u7b$vtable.shim$u7d$$u7d$17he7aed0aa0574be65E
000000000008f020 l     F .text	0000000000000020              _ZN4core3ptr71drop_in_place$LT$std..panicking..panic_handler..FormatStringPayload$GT$17h7c9e46daf0976d41E
00000000000225e0 l       .gcc_except_table	0000000000000000              GCC_except_table619
000000000008dc10 l     F .text	000000000000000c              _ZN4core3ops8function6FnOnce40call_once$u7b$$u7b$vtable.shim$u7d$$u7d$17hfaebcb1ed24df897E
000000000008dc30 l     F .text	0000000000000011              _ZN4core3ptr119drop_in_place$LT$std..io..default_write_fmt..Adapter$LT$std..io..cursor..Cursor$LT$$RF$mut$u20$$u5b$u8$u5d$$GT$$GT$$GT$17hcffd41f0c1cd4060E
000000000008def0 l     F .text	00000000000000dd              _ZN4core3ptr130drop_in_place$LT$addr2line..unit..SupUnits$LT$gimli..read..endian_slice..EndianSlice$LT$gimli..endianity..LittleEndian$GT$$GT$$GT$17h751c50fa3f4bba5eE
00000000000225ec l       .gcc_except_table	0000000000000000              GCC_except_table628
000000000008e650 l     F .text	00000000000000e5              _ZN4core3ptr184drop_in_place$LT$core..result..Result$LT$addr2line..function..Functions$LT$gimli..read..endian_slice..EndianSlice$LT$gimli..endianity..LittleEndian$GT$$GT$$C$gimli..read..Error$GT$$GT$17h6a5681146dc5c246E
000000000008e7b0 l     F .text	00000000000000ae              _ZN4core3ptr231drop_in_place$LT$core..result..Result$LT$core..option..Option$LT$alloc..boxed..Box$LT$addr2line..unit..DwoUnit$LT$gimli..read..endian_slice..EndianSlice$LT$gimli..endianity..LittleEndian$GT$$GT$$GT$$GT$$C$gimli..read..Error$GT$$GT$17hdfb45ad573e044ccE
000000000002260c l       .gcc_except_table	0000000000000000              GCC_except_table629
000000000002262c l       .gcc_except_table	0000000000000000              GCC_except_table630
0000000000022638 l       .gcc_except_table	0000000000000000              GCC_except_table631
0000000000022654 l       .gcc_except_table	0000000000000000              GCC_except_table632
000000000008ed00 l     F .text	00000000000000dd              _ZN4core3ptr60drop_in_place$LT$gimli..read..abbrev..AbbreviationsCache$GT$17h061107c13ae5061aE
0000000000022670 l       .gcc_except_table	0000000000000000              GCC_except_table633
000000000002268c l       .gcc_except_table	0000000000000000              GCC_except_table634
0000000000022698 l       .gcc_except_table	0000000000000000              GCC_except_table635
000000000008e0f0 l     F .text	0000000000000063              _ZN4core3ptr138drop_in_place$LT$addr2line..function..LazyFunction$LT$gimli..read..endian_slice..EndianSlice$LT$gimli..endianity..LittleEndian$GT$$GT$$GT$17hcb80bb572585cf85E
00000000000226a4 l       .gcc_except_table	0000000000000000              GCC_except_table638
00000000000226c0 l       .gcc_except_table	0000000000000000              GCC_except_table639
00000000000226dc l       .gcc_except_table	0000000000000000              GCC_except_table640
000000000008e390 l     F .text	00000000000000bc              _ZN4core3ptr161drop_in_place$LT$alloc..vec..Vec$LT$addr2line..function..LazyFunction$LT$gimli..read..endian_slice..EndianSlice$LT$gimli..endianity..LittleEndian$GT$$GT$$GT$$GT$17hda99519fdf9f93feE
00000000000226f8 l       .gcc_except_table	0000000000000000              GCC_except_table642
0000000000022718 l       .gcc_except_table	0000000000000000              GCC_except_table643
000000000008e4c0 l     F .text	00000000000000af              _ZN4core3ptr173drop_in_place$LT$alloc..boxed..Box$LT$$u5b$addr2line..function..LazyFunction$LT$gimli..read..endian_slice..EndianSlice$LT$gimli..endianity..LittleEndian$GT$$GT$$u5d$$GT$$GT$17h0b33a6707814a370E
0000000000022738 l       .gcc_except_table	0000000000000000              GCC_except_table646
0000000000022744 l       .gcc_except_table	0000000000000000              GCC_except_table649
0000000000022750 l       .gcc_except_table	0000000000000000              GCC_except_table651
000000000008e860 l     F .text	0000000000000018              _ZN4core3ptr238drop_in_place$LT$alloc..boxed..convert..$LT$impl$u20$core..convert..From$LT$alloc..string..String$GT$$u20$for$u20$alloc..boxed..Box$LT$dyn$u20$core..error..Error$u2b$core..marker..Sync$u2b$core..marker..Send$GT$$GT$..from..StringError$GT$17h9f3971f48830958eE
000000000008e880 l     F .text	0000000000000096              _ZN4core3ptr275drop_in_place$LT$gimli..read..line..LineRows$LT$gimli..read..endian_slice..EndianSlice$LT$gimli..endianity..LittleEndian$GT$$C$gimli..read..line..IncompleteLineProgram$LT$gimli..read..endian_slice..EndianSlice$LT$gimli..endianity..LittleEndian$GT$$C$usize$GT$$C$usize$GT$$GT$17hdc0c3e2c46d489cbE
000000000008e920 l     F .text	0000000000000083              _ZN4core3ptr280drop_in_place$LT$$LT$alloc..collections..btree..map..IntoIter$LT$K$C$V$C$A$GT$$u20$as$u20$core..ops..drop..Drop$GT$..drop..DropGuard$LT$u64$C$core..result..Result$LT$alloc..sync..Arc$LT$gimli..read..abbrev..Abbreviations$GT$$C$gimli..read..Error$GT$$C$alloc..alloc..Global$GT$$GT$17had22c415a1bfdce1E
000000000009b370 l     F .text	00000000000003dd              _ZN5alloc11collections5btree3map25IntoIter$LT$K$C$V$C$A$GT$10dying_next17h2d1d001bf7b0cebaE
000000000008e9b0 l     F .text	0000000000000010              _ZN4core3ptr284drop_in_place$LT$core..result..Result$LT$$RF$core..result..Result$LT$addr2line..line..Lines$C$gimli..read..Error$GT$$C$$LP$$RF$core..result..Result$LT$addr2line..line..Lines$C$gimli..read..Error$GT$$C$core..result..Result$LT$addr2line..line..Lines$C$gimli..read..Error$GT$$RP$$GT$$GT$17h88fe8ad0959e746aE
0000000000022770 l       .gcc_except_table	0000000000000000              GCC_except_table660
000000000008e9c0 l     F .text	0000000000000018              _ZN4core3ptr42drop_in_place$LT$alloc..string..String$GT$17h2f86388b711f31a1E
000000000002277c l       .gcc_except_table	0000000000000000              GCC_except_table662
000000000008ea90 l     F .text	0000000000000018              _ZN4core3ptr46drop_in_place$LT$alloc..vec..Vec$LT$u8$GT$$GT$17h31f038533715924cE
0000000000022788 l       .gcc_except_table	0000000000000000              GCC_except_table672
0000000000022794 l       .gcc_except_table	0000000000000000              GCC_except_table675
000000000008eb40 l     F .text	0000000000000063              _ZN4core3ptr557drop_in_place$LT$core..result..Result$LT$$RF$core..result..Result$LT$addr2line..function..Function$LT$gimli..read..endian_slice..EndianSlice$LT$gimli..endianity..LittleEndian$GT$$GT$$C$gimli..read..Error$GT$$C$$LP$$RF$core..result..Result$LT$addr2line..function..Function$LT$gimli..read..endian_slice..EndianSlice$LT$gimli..endianity..LittleEndian$GT$$GT$$C$gimli..read..Error$GT$$C$core..result..Result$LT$addr2line..function..Function$LT$gimli..read..endian_slice..EndianSlice$LT$gimli..endianity..LittleEndian$GT$$GT$$C$gimli..read..Error$GT$$RP$$GT$$GT$17h63208567a59c6fb4E
000000000008ebb0 l     F .text	000000000000013d              _ZN4core3ptr55drop_in_place$LT$gimli..read..abbrev..Abbreviations$GT$17hfb1e06232cc62fbfE
000000000009b750 l     F .text	00000000000003dd              _ZN5alloc11collections5btree3map25IntoIter$LT$K$C$V$C$A$GT$10dying_next17h704599d35bdd07b0E
00000000000227b4 l       .gcc_except_table	0000000000000000              GCC_except_table679
00000000000227c0 l       .gcc_except_table	0000000000000000              GCC_except_table680
000000000008ecf0 l     F .text	0000000000000010              _ZN4core3ptr560drop_in_place$LT$core..result..Result$LT$$RF$core..result..Result$LT$addr2line..function..Functions$LT$gimli..read..endian_slice..EndianSlice$LT$gimli..endianity..LittleEndian$GT$$GT$$C$gimli..read..Error$GT$$C$$LP$$RF$core..result..Result$LT$addr2line..function..Functions$LT$gimli..read..endian_slice..EndianSlice$LT$gimli..endianity..LittleEndian$GT$$GT$$C$gimli..read..Error$GT$$C$core..result..Result$LT$addr2line..function..Functions$LT$gimli..read..endian_slice..EndianSlice$LT$gimli..endianity..LittleEndian$GT$$GT$$C$gimli..read..Error$GT$$RP$$GT$$GT$17h1589901ad2bcfcbbE
00000000000227dc l       .gcc_except_table	0000000000000000              GCC_except_table682
0000000000022800 l       .gcc_except_table	0000000000000000              GCC_except_table683
000000000008ede0 l     F .text	000000000000008c              _ZN4core3ptr65drop_in_place$LT$alloc..vec..Vec$LT$alloc..string..String$GT$$GT$17h2342c11d4b4896c7E
000000000008f040 l     F .text	0000000000000090              _ZN4core3ptr73drop_in_place$LT$alloc..vec..Vec$LT$addr2line..line..LineSequence$GT$$GT$17hc16cf11a66cd0a35E
000000000008f0d0 l     F .text	0000000000000082              _ZN4core3ptr77drop_in_place$LT$alloc..boxed..Box$LT$$u5b$alloc..string..String$u5d$$GT$$GT$17h46688a3e452b6000E
000000000002280c l       .gcc_except_table	0000000000000000              GCC_except_table698
0000000000022818 l       .gcc_except_table	0000000000000000              GCC_except_table699
0000000000022840 l       .gcc_except_table	0000000000000000              GCC_except_table702
0000000000022858 l       .gcc_except_table	0000000000000000              GCC_except_table703
0000000000022864 l       .gcc_except_table	0000000000000000              GCC_except_table713
000000000008f780 l     F .text	00000000000000f0              _ZN4core3str7pattern13simd_contains28_$u7b$$u7b$closure$u7d$$u7d$17hd366d4b95dbdd049E
000000000008f870 l     F .text	000000000000005b              _ZN4core4cell4once17OnceCell$LT$T$GT$8try_init17h151c6e6d0c6d828dE
00000000000a8000 l     F .text	000000000000046a              _ZN9addr2line4line11render_file17h6e6e90426b3bdaafE
0000000000094480 l     F .text	00000000000000a1              _ZN4core5slice4sort6shared9smallsort25insertion_sort_shift_left17h10ce8cf0a99162acE
0000000000022878 l       .gcc_except_table	0000000000000000              GCC_except_table721
0000000000091d30 l     F .text	0000000000000efc              _ZN4core4cell4once17OnceCell$LT$T$GT$8try_init17h741aaf0faa3fc095E
00000000000a06b0 l     F .text	0000000000000554              _ZN5gimli4read4unit15skip_attributes17hff32e6f843c9f200E
0000000000022900 l       .gcc_except_table	0000000000000000              GCC_except_table722
0000000000092c30 l     F .text	0000000000000873              _ZN4core4cell4once17OnceCell$LT$T$GT$8try_init17haadc2ee417a1f04fE
00000000000a4160 l     F .text	00000000000001e5              _ZN5gimli4read5dwarf14Dwarf$LT$R$GT$11attr_string17h839978af81ab6f0cE
00000000000aa730 l     F .text	000000000000019d              _ZN9addr2line8function9name_attr17h7240a69c2ae8e45bE
00000000000a9570 l     F .text	00000000000011b8              _ZN9addr2line8function17Function$LT$R$GT$14parse_children17h3eb03648883366b5E
0000000000094530 l     F .text	00000000000000bf              _ZN4core5slice4sort6shared9smallsort25insertion_sort_shift_left17h2fdf00bbb24eff60E
000000000002293c l       .gcc_except_table	0000000000000000              GCC_except_table723
00000000000934b0 l     F .text	0000000000000071              _ZN4core4cell4once17OnceCell$LT$T$GT$8try_init17hca2a7ff25bbea4c4E
0000000000093530 l     F .text	000000000000000d              _ZN4core5error5Error11description17hf1867ef171a83cd7E
0000000000093540 l     F .text	0000000000000003              _ZN4core5error5Error5cause17h2246bcd5736c1fa7E
0000000000093550 l     F .text	0000000000000001              _ZN4core5error5Error7provide17h1103bffd68ff24dcE
0000000000093560 l     F .text	000000000000000e              _ZN4core5error5Error7type_id17hfdb8338311ca22f7E
0000000000093570 l     F .text	0000000000000003              _ZN4core5panic12PanicPayload6as_str17h7a1f5aea77bc5d52E
0000000000093580 l     F .text	00000000000000b2              _ZN4core5slice4sort6shared5pivot11median3_rec17h0fb2b49e5532afa8E
0000000000093640 l     F .text	00000000000000ac              _ZN4core5slice4sort6shared5pivot11median3_rec17h36bef1882e7056f7E
00000000000936f0 l     F .text	0000000000000103              _ZN4core5slice4sort6shared5pivot11median3_rec17h4a415bafd0428620E
0000000000093800 l     F .text	00000000000000b3              _ZN4core5slice4sort6shared5pivot11median3_rec17h547931f90fe96b45E
00000000000938c0 l     F .text	00000000000000b2              _ZN4core5slice4sort6shared5pivot11median3_rec17hb752be6604cb70acE
0000000000093980 l     F .text	00000000000000b3              _ZN4core5slice4sort6shared5pivot11median3_rec17hdcdaa3f0bba190b9E
0000000000093a40 l     F .text	0000000000000165              _ZN4core5slice4sort6shared9smallsort12sort4_stable17he286991c3b7d367bE
0000000000093bb0 l     F .text	0000000000000376              _ZN4core5slice4sort6shared9smallsort12sort8_stable17h13690d2b1de333d7E
0000000000093f30 l     F .text	0000000000000546              _ZN4core5slice4sort6shared9smallsort18small_sort_general17h966a20c62fc23238E
000000000002296c l       .gcc_except_table	0000000000000000              GCC_except_table743
0000000000095330 l     F .text	00000000000006a8              _ZN4core5slice4sort6stable5drift4sort17h2ed286d22b29bad4E
000000000002297c l       .gcc_except_table	0000000000000000              GCC_except_table746
0000000000096720 l     F .text	00000000000006c3              _ZN4core5slice4sort6stable5drift4sort17heab7ad51cccfc3b2E
0000000000022990 l       .gcc_except_table	0000000000000000              GCC_except_table747
00000000000960a0 l     F .text	000000000000067d              _ZN4core5slice4sort6stable5drift4sort17hb60700ca0cb201efE
00000000000229a4 l       .gcc_except_table	0000000000000000              GCC_except_table748
0000000000094cb0 l     F .text	000000000000067d              _ZN4core5slice4sort6stable5drift4sort17h2818cf2aa8951d48E
00000000000229b8 l       .gcc_except_table	0000000000000000              GCC_except_table749
00000000000959e0 l     F .text	00000000000006b2              _ZN4core5slice4sort6stable5drift4sort17h522d7ed295b0c589E
00000000000229cc l       .gcc_except_table	0000000000000000              GCC_except_table750
00000000000229e0 l       .gcc_except_table	0000000000000000              GCC_except_table756
00000000000229f4 l       .gcc_except_table	0000000000000000              GCC_except_table757
0000000000022a08 l       .gcc_except_table	0000000000000000              GCC_except_table758
0000000000022a1c l       .gcc_except_table	0000000000000000              GCC_except_table759
0000000000022a30 l       .gcc_except_table	0000000000000000              GCC_except_table760
000000000009a390 l     F .text	000000000000045c              _ZN4core5slice4sort8unstable9quicksort9quicksort17hddb96a1eef121f3eE
0000000000022a44 l       .gcc_except_table	0000000000000000              GCC_except_table772
0000000000022a68 l       .gcc_except_table	0000000000000000              GCC_except_table786
0000000000022a7c l       .gcc_except_table	0000000000000000              GCC_except_table788
0000000000022a94 l       .gcc_except_table	0000000000000000              GCC_except_table790
0000000000022aa4 l       .gcc_except_table	0000000000000000              GCC_except_table791
0000000000022ab4 l       .gcc_except_table	0000000000000000              GCC_except_table793
0000000000022ac4 l       .gcc_except_table	0000000000000000              GCC_except_table794
000000000009b1b0 l     F .text	0000000000000014              _ZN58_$LT$alloc..string..String$u20$as$u20$core..fmt..Debug$GT$3fmt17hc9ba220b3a6d24e8E
000000000009b1d0 l     F .text	0000000000000112              _ZN58_$LT$alloc..string..String$u20$as$u20$core..fmt..Write$GT$10write_char17h631179a280c97600E
000000000009b2f0 l     F .text	0000000000000067              _ZN58_$LT$alloc..string..String$u20$as$u20$core..fmt..Write$GT$9write_str17hd717793223240653E
0000000000022ad4 l       .gcc_except_table	0000000000000000              GCC_except_table832
0000000000022af4 l       .gcc_except_table	0000000000000000              GCC_except_table842
0000000000022b04 l       .gcc_except_table	0000000000000000              GCC_except_table843
0000000000022b14 l       .gcc_except_table	0000000000000000              GCC_except_table845
0000000000022b24 l       .gcc_except_table	0000000000000000              GCC_except_table846
0000000000022b34 l       .gcc_except_table	0000000000000000              GCC_except_table851
0000000000022b44 l       .gcc_except_table	0000000000000000              GCC_except_table854
0000000000022b54 l       .gcc_except_table	0000000000000000              GCC_except_table855
0000000000022b8c l       .gcc_except_table	0000000000000000              GCC_except_table862
0000000000022be4 l       .gcc_except_table	0000000000000000              GCC_except_table863
0000000000022c3c l       .gcc_except_table	0000000000000000              GCC_except_table864
0000000000022c50 l       .gcc_except_table	0000000000000000              GCC_except_table865
0000000000022c64 l       .gcc_except_table	0000000000000000              GCC_except_table866
0000000000022c78 l       .gcc_except_table	0000000000000000              GCC_except_table867
0000000000022c8c l       .gcc_except_table	0000000000000000              GCC_except_table868
0000000000022ca0 l       .gcc_except_table	0000000000000000              GCC_except_table869
0000000000022cb4 l       .gcc_except_table	0000000000000000              GCC_except_table870
0000000000022cdc l       .gcc_except_table	0000000000000000              GCC_except_table871
0000000000022d04 l       .gcc_except_table	0000000000000000              GCC_except_table872
000000000009bf60 l     F .text	000000000000032b              _ZN5alloc11collections5btree4node29BalancingContext$LT$K$C$V$GT$15bulk_steal_left17he5d488b85b6a0184E
000000000009c290 l     F .text	000000000000038f              _ZN5alloc11collections5btree4node29BalancingContext$LT$K$C$V$GT$16bulk_steal_right17h7806dfd427cf804bE
000000000009c620 l     F .text	00000000000003b4              _ZN5alloc11collections5btree4node29BalancingContext$LT$K$C$V$GT$8do_merge17h03930cbd6e65d851E
0000000000022d2c l       .gcc_except_table	0000000000000000              GCC_except_table879
0000000000022d50 l       .gcc_except_table	0000000000000000              GCC_except_table880
0000000000022d74 l       .gcc_except_table	0000000000000000              GCC_except_table881
0000000000022d98 l       .gcc_except_table	0000000000000000              GCC_except_table884
0000000000022da4 l       .gcc_except_table	0000000000000000              GCC_except_table885
0000000000022db0 l       .gcc_except_table	0000000000000000              GCC_except_table886
0000000000022dcc l       .gcc_except_table	0000000000000000              GCC_except_table887
000000000009de00 l     F .text	00000000000002e9              _ZN5gimli4read4line13parse_file_v517hf4161738bab2e1c1E
000000000009e4c0 l     F .text	0000000000000a31              _ZN5gimli4read4line15parse_attribute17ha51e73486e6e77cbE
000000000009e0f0 l     F .text	00000000000003c5              _ZN5gimli4read4line15FileEntryFormat5parse17h51325da1f1496e91E
0000000000022ddc l       .gcc_except_table	0000000000000000              GCC_except_table903
000000000009ef00 l     F .text	00000000000000e1              _ZN5gimli4read4line18parse_directory_v517hd677e013b8703facE
000000000009eff0 l     F .text	0000000000000256              _ZN5gimli4read4line27FileEntry$LT$R$C$Offset$GT$5parse17ha7468dd00514abd7E
00000000000a4d90 l     F .text	00000000000000ff              _ZN5gimli4read6reader6Reader17read_sized_offset17h215f7eaef18b83aaE
00000000000a4c30 l     F .text	00000000000000a6              _ZN5gimli4read6reader6Reader11read_offset17h1057ebfdd97dcc48E
00000000000a14b0 l     F .text	0000000000000056              _ZN5gimli4read4unit32AttributeValue$LT$R$C$Offset$GT$11udata_value17h2daa30cf791811c7E
00000000000a76f0 l     F .text	000000000000004c              _ZN90_$LT$gimli..read..unit..AttributeValue$LT$R$C$Offset$GT$$u20$as$u20$core..clone..Clone$GT$5clone17hdb64df1656d1bdd3E
00000000000a1180 l     F .text	000000000000032d              _ZN5gimli4read4unit22EntriesCursor$LT$R$GT$10next_entry17hf6370f2cf3eb74e4E
00000000000a4ce0 l     F .text	00000000000000ac              _ZN5gimli4read6reader6Reader12read_uleb12817h1d16fa1dca718f09E
0000000000022dec l       .gcc_except_table	0000000000000000              GCC_except_table913
00000000000a6010 l     F .text	0000000000000014              _ZN60_$LT$alloc..string..String$u20$as$u20$core..fmt..Display$GT$3fmt17h86a528f6a97fe10dE
0000000000022e70 l       .gcc_except_table	0000000000000000              GCC_except_table930
0000000000022e88 l       .gcc_except_table	0000000000000000              GCC_except_table943
0000000000022eb0 l       .gcc_except_table	0000000000000000              GCC_except_table946
0000000000022ec4 l       .gcc_except_table	0000000000000000              GCC_except_table947
0000000000022ee0 l       .gcc_except_table	0000000000000000              GCC_except_table948
0000000000022ef4 l       .gcc_except_table	0000000000000000              GCC_except_table949
0000000000022f08 l       .gcc_except_table	0000000000000000              GCC_except_table950
0000000000022f18 l       .gcc_except_table	0000000000000000              GCC_except_table951
0000000000022f4c l       .gcc_except_table	0000000000000000              GCC_except_table952
0000000000022f68 l       .gcc_except_table	0000000000000000              GCC_except_table953
0000000000022f78 l       .gcc_except_table	0000000000000000              GCC_except_table954
0000000000022f94 l       .gcc_except_table	0000000000000000              GCC_except_table955
0000000000022fa4 l       .gcc_except_table	0000000000000000              GCC_except_table956
0000000000022fb4 l       .gcc_except_table	0000000000000000              GCC_except_table957
0000000000022fe8 l       .gcc_except_table	0000000000000000              GCC_except_table959
0000000000022ff4 l       .gcc_except_table	0000000000000000              GCC_except_table962
0000000000023008 l       .gcc_except_table	0000000000000000              GCC_except_table963
0000000000023014 l       .gcc_except_table	0000000000000000              GCC_except_table964
0000000000023038 l       .gcc_except_table	0000000000000000              GCC_except_table965
0000000000023044 l       .gcc_except_table	0000000000000000              GCC_except_table966
000000000002306c l       .gcc_except_table	0000000000000000              GCC_except_table967
0000000000023090 l       .gcc_except_table	0000000000000000              GCC_except_table973
00000000000a6870 l     F .text	0000000000000028              _ZN62_$LT$std..io..error..ErrorKind$u20$as$u20$core..fmt..Debug$GT$3fmt17h4977237c2caff513E
00000000000230e8 l       .gcc_except_table	0000000000000000              GCC_except_table985
0000000000023108 l       .gcc_except_table	0000000000000000              GCC_except_table1009
0000000000023144 l       .gcc_except_table	0000000000000000              GCC_except_table1010
00000000000a6bf0 l     F .text	0000000000000035              _ZN64_$LT$std..path..StripPrefixError$u20$as$u20$core..fmt..Debug$GT$3fmt17h9d5b2ca15ccb38d1E
00000000000a6c80 l     F .text	0000000000000003              _ZN64_$LT$std..sys..stdio..unix..Stderr$u20$as$u20$std..io..Write$GT$17is_write_vectored17h46f4844eaa10ff6dE
00000000000a6c90 l     F .text	0000000000000003              _ZN64_$LT$std..sys..stdio..unix..Stderr$u20$as$u20$std..io..Write$GT$5flush17heb383b7c605263b6E
0000000000023170 l       .gcc_except_table	0000000000000000              GCC_except_table1029
0000000000023194 l       .gcc_except_table	0000000000000000              GCC_except_table1081
00000000000231a8 l       .gcc_except_table	0000000000000000              GCC_except_table1082
00000000000231c8 l       .gcc_except_table	0000000000000000              GCC_except_table1092
00000000000231ec l       .gcc_except_table	0000000000000000              GCC_except_table1095
0000000000023224 l       .gcc_except_table	0000000000000000              GCC_except_table1097
0000000000023248 l       .gcc_except_table	0000000000000000              GCC_except_table1104
000000000002327c l       .gcc_except_table	0000000000000000              GCC_except_table1115
00000000000232a0 l       .gcc_except_table	0000000000000000              GCC_except_table1116
00000000000a73a0 l     F .text	0000000000000050              _ZN81_$LT$std..io..default_write_fmt..Adapter$LT$T$GT$$u20$as$u20$core..fmt..Write$GT$9write_str17h48745bc79ffc1970E
00000000000232b8 l       .gcc_except_table	0000000000000000              GCC_except_table1124
00000000000a73f0 l     F .text	0000000000000098              _ZN81_$LT$std..io..default_write_fmt..Adapter$LT$T$GT$$u20$as$u20$core..fmt..Write$GT$9write_str17h8ed0f8cf3c68e821E
00000000000232c8 l       .gcc_except_table	0000000000000000              GCC_except_table1125
00000000000a7490 l     F .text	00000000000000e7              _ZN81_$LT$std..io..default_write_fmt..Adapter$LT$T$GT$$u20$as$u20$core..fmt..Write$GT$9write_str17h916d81488a58e8d9E
00000000000232dc l       .gcc_except_table	0000000000000000              GCC_except_table1126
00000000000232f0 l       .gcc_except_table	0000000000000000              GCC_except_table1127
0000000000023300 l       .gcc_except_table	0000000000000000              GCC_except_table1128
00000000000a7580 l     F .text	0000000000000067              _ZN81_$LT$std..io..default_write_fmt..Adapter$LT$T$GT$$u20$as$u20$core..fmt..Write$GT$9write_str17hfb4793afc0585940E
0000000000023314 l       .gcc_except_table	0000000000000000              GCC_except_table1130
0000000000023334 l       .gcc_except_table	0000000000000000              GCC_except_table1131
0000000000023348 l       .gcc_except_table	0000000000000000              GCC_except_table1138
000000000002335c l       .gcc_except_table	0000000000000000              GCC_except_table1163
0000000000023370 l       .gcc_except_table	0000000000000000              GCC_except_table1164
0000000000023388 l       .gcc_except_table	0000000000000000              GCC_except_table1170
00000000000233a0 l       .gcc_except_table	0000000000000000              GCC_except_table1171
00000000000a7740 l     F .text	000000000000000b              _ZN93_$LT$std..panicking..panic_handler..StaticStrPayload$u20$as$u20$core..panic..PanicPayload$GT$3get17h3858c880bd934127E
00000000000a7750 l     F .text	0000000000000008              _ZN93_$LT$std..panicking..panic_handler..StaticStrPayload$u20$as$u20$core..panic..PanicPayload$GT$6as_str17hc6c05c2a3d01ed08E
00000000000233b8 l       .gcc_except_table	0000000000000000              GCC_except_table1183
00000000000233c8 l       .gcc_except_table	0000000000000000              GCC_except_table1191
00000000000233d8 l       .gcc_except_table	0000000000000000              GCC_except_table1197
00000000000a7ea0 l     F .text	0000000000000151              _ZN9addr2line16Context$LT$R$GT$9find_unit17h51639f5adb5e29eaE
00000000000233f4 l       .gcc_except_table	0000000000000000              GCC_except_table1200
000000000002341c l       .gcc_except_table	0000000000000000              GCC_except_table1203
00000000000a9170 l     F .text	00000000000003f7              _ZN9addr2line8function10name_entry17hd86911d109d939aaE
0000000000023450 l       .gcc_except_table	0000000000000000              GCC_except_table1207
0000000000078a40 l     F .text	000000000000005d              .hidden _RNvCskdKJRKLKjqM_7___rustc11___rdl_alloc
0000000000078aa0 l     F .text	0000000000000006              .hidden _RNvCskdKJRKLKjqM_7___rustc13___rdl_dealloc
0000000000078ab0 l     F .text	00000000000000c0              .hidden _RNvCskdKJRKLKjqM_7___rustc13___rdl_realloc
0000000000078c60 l     F .text	000000000000008c              .hidden _RNvCskdKJRKLKjqM_7___rustc18___rdl_alloc_zeroed
0000000000078dc0 l     F .text	0000000000000013              .hidden _RNvCskdKJRKLKjqM_7___rustc8___rg_oom
0000000000000000 l    df *ABS*	0000000000000000              panic_unwind.8363f53461359993-cgu.0
00000000000aafa0 l     F .text	0000000000000018              _ZN12panic_unwind3imp5panic17exception_cleanup17h2ee375704821522dE
000000000001a694 l     O .rodata	0000000000000001              _ZN12panic_unwind3imp6CANARY17h22288a9dc3a1f529E
00000000000aafc0 l     F .text	0000000000000069              _ZN4core3ptr49drop_in_place$LT$panic_unwind..imp..Exception$GT$17h6cdf55cc4d03d1aeE
0000000000023468 l       .gcc_except_table	0000000000000000              GCC_except_table0
00000000000ab030 l     F .text	000000000000008d              _ZN4core3ptr74drop_in_place$LT$alloc..boxed..Box$LT$panic_unwind..imp..Exception$GT$$GT$17hbe12b967a9bdc9fbE
0000000000023488 l       .gcc_except_table	0000000000000000              GCC_except_table2
0000000000023490 l       .gcc_except_table	0000000000000000              GCC_except_table3
000000000002349c l       .gcc_except_table	0000000000000000              GCC_except_table4
0000000000000000 l    df *ABS*	0000000000000000              object.3c9f866dacc730d3-cgu.0
00000000000234a8 l       .gcc_except_table	0000000000000000              GCC_except_table25
00000000000234bc l       .gcc_except_table	0000000000000000              GCC_except_table43
00000000000234d4 l       .gcc_except_table	0000000000000000              GCC_except_table54
0000000000000000 l    df *ABS*	0000000000000000              memchr.422d767b18068259-cgu.0
00000000000ab2e0 l     F .text	00000000000001af              _ZN6memchr4arch6x86_646memchr10memchr_raw9find_sse217hf51528efb4db4ffbE
0000000000000000 l    df *ABS*	0000000000000000              addr2line.93788ab89f630507-cgu.0
00000000000ab4f3 l     F .text	0000000000000037              _ZN4core3ptr42drop_in_place$LT$alloc..string..String$GT$17h24dfa5fef4a5aa88E
00000000000234ec l       .gcc_except_table	0000000000000000              GCC_except_table1
00000000000ab5cc l     F .text	0000000000000033              _ZN9addr2line4line23has_backward_slash_root17h986a5dc72a19fd49E
0000000000023508 l       .gcc_except_table	0000000000000000              GCC_except_table11
0000000000000000 l    df *ABS*	0000000000000000              gimli.ca4916035438908e-cgu.0
0000000000023520 l       .gcc_except_table	0000000000000000              GCC_except_table10
0000000000023534 l       .gcc_except_table	0000000000000000              GCC_except_table12
0000000000023540 l       .gcc_except_table	0000000000000000              GCC_except_table15
0000000000023550 l       .gcc_except_table	0000000000000000              GCC_except_table24
0000000000023564 l       .gcc_except_table	0000000000000000              GCC_except_table27
0000000000023574 l       .gcc_except_table	0000000000000000              GCC_except_table29
0000000000023594 l       .gcc_except_table	0000000000000000              GCC_except_table30
00000000000235a4 l       .gcc_except_table	0000000000000000              GCC_except_table31
00000000000235c4 l       .gcc_except_table	0000000000000000              GCC_except_table34
00000000000235e0 l       .gcc_except_table	0000000000000000              GCC_except_table79
00000000000235f8 l       .gcc_except_table	0000000000000000              GCC_except_table80
0000000000023604 l       .gcc_except_table	0000000000000000              GCC_except_table81
0000000000023614 l       .gcc_except_table	0000000000000000              GCC_except_table87
0000000000023628 l       .gcc_except_table	0000000000000000              GCC_except_table88
000000000002363c l       .gcc_except_table	0000000000000000              GCC_except_table89
0000000000023650 l       .gcc_except_table	0000000000000000              GCC_except_table91
0000000000023664 l       .gcc_except_table	0000000000000000              GCC_except_table92
0000000000023678 l       .gcc_except_table	0000000000000000              GCC_except_table93
0000000000023690 l       .gcc_except_table	0000000000000000              GCC_except_table94
00000000000236a8 l       .gcc_except_table	0000000000000000              GCC_except_table95
00000000000236c0 l       .gcc_except_table	0000000000000000              GCC_except_table96
00000000000236d4 l       .gcc_except_table	0000000000000000              GCC_except_table97
00000000000236e8 l       .gcc_except_table	0000000000000000              GCC_except_table98
00000000000236fc l       .gcc_except_table	0000000000000000              GCC_except_table99
0000000000023710 l       .gcc_except_table	0000000000000000              GCC_except_table100
0000000000023724 l       .gcc_except_table	0000000000000000              GCC_except_table101
0000000000023738 l       .gcc_except_table	0000000000000000              GCC_except_table102
000000000002374c l       .gcc_except_table	0000000000000000              GCC_except_table103
0000000000023760 l       .gcc_except_table	0000000000000000              GCC_except_table104
0000000000023774 l       .gcc_except_table	0000000000000000              GCC_except_table105
0000000000023788 l       .gcc_except_table	0000000000000000              GCC_except_table106
000000000002379c l       .gcc_except_table	0000000000000000              GCC_except_table107
00000000000237b0 l       .gcc_except_table	0000000000000000              GCC_except_table108
00000000000237c4 l       .gcc_except_table	0000000000000000              GCC_except_table109
00000000000237d8 l       .gcc_except_table	0000000000000000              GCC_except_table110
00000000000237ec l       .gcc_except_table	0000000000000000              GCC_except_table111
0000000000023800 l       .gcc_except_table	0000000000000000              GCC_except_table112
0000000000023814 l       .gcc_except_table	0000000000000000              GCC_except_table113
0000000000023828 l       .gcc_except_table	0000000000000000              GCC_except_table114
000000000002383c l       .gcc_except_table	0000000000000000              GCC_except_table115
0000000000023850 l       .gcc_except_table	0000000000000000              GCC_except_table116
0000000000023864 l       .gcc_except_table	0000000000000000              GCC_except_table117
0000000000023878 l       .gcc_except_table	0000000000000000              GCC_except_table118
000000000002388c l       .gcc_except_table	0000000000000000              GCC_except_table120
0000000000000000 l    df *ABS*	0000000000000000              rustc_demangle.aae0f2251e8e4f05-cgu.0
00000000000acd5a l     F .text	000000000000030e              _ZN104_$LT$core..iter..sources..from_fn..FromFn$LT$F$GT$$u20$as$u20$core..iter..traits..iterator..Iterator$GT$4next17h6bd30808933a53f1E
00000000000b27d7 l     F .text	0000000000000015              _ZN81_$LT$core..str..iter..Chars$u20$as$u20$core..iter..traits..iterator..Iterator$GT$5count17hfd2fb0143bfc13aaE
00000000000ad0bd l     F .text	00000000000000fe              _ZN14rustc_demangle2v010HexNibbles14try_parse_uint17hda3122954b57b128E
00000000000ad1bb l     F .text	000000000000002b              _ZN14rustc_demangle2v010basic_type17hcbb2c08114a3624dE
00000000000ad1e6 l     F .text	00000000000000a2              _ZN14rustc_demangle2v06Parser10integer_6217hd3114f283518c3c5E
00000000000ad288 l     F .text	000000000000009f              _ZN14rustc_demangle2v06Parser11hex_nibbles17h8afd4be34e7c65fcE
00000000000ad327 l     F .text	0000000000000074              _ZN14rustc_demangle2v06Parser14opt_integer_6217hdfcb8fed233a5672E
00000000000ad39b l     F .text	00000000000001da              _ZN14rustc_demangle2v06Parser5ident17h35369768b325d781E
00000000000ad575 l     F .text	000000000000007e              _ZN14rustc_demangle2v06Parser7backref17h6c088bb75eb0b8baE
00000000000ad5f3 l     F .text	000000000000004f              _ZN14rustc_demangle2v06Parser9namespace17h177419852036ae63E
00000000000ad642 l     F .text	00000000000006e0              _ZN14rustc_demangle2v07Printer10print_path17h7c5748eebc73d48cE
00000000000aef1a l     F .text	0000000000000144              _ZN14rustc_demangle2v07Printer14print_sep_list17h01d4af55dd738874E
00000000000aed3e l     F .text	00000000000000ee              _ZN14rustc_demangle2v07Printer13print_backref17h69b9a1ebd47a6945E
00000000000af7a3 l     F .text	0000000000000056              _ZN14rustc_demangle2v07Printer17skipping_printing17hb65e83b5ba498600E
00000000000add22 l     F .text	000000000000053b              _ZN14rustc_demangle2v07Printer10print_type17he77694532b56949fE
00000000000ae5e9 l     F .text	0000000000000674              _ZN14rustc_demangle2v07Printer11print_const17hacc9e425ecea1789E
00000000000af4fb l     F .text	000000000000009d              _ZN14rustc_demangle2v07Printer14print_sep_list17h8cf9e24ff915674eE
00000000000b020a l     F .text	00000000000001e3              _ZN14rustc_demangle2v07Printer9print_pat17hdc2bcd938684a7a9E
00000000000aec5d l     F .text	00000000000000e1              _ZN14rustc_demangle2v07Printer13print_backref17h3bd5bd1646b01417E
00000000000aff09 l     F .text	0000000000000183              _ZN14rustc_demangle2v07Printer9in_binder17h4ebe2b49739aa577E
00000000000b008c l     F .text	000000000000017e              _ZN14rustc_demangle2v07Printer9in_binder17ha40bec170b605234E
00000000000afb22 l     F .text	00000000000000f1              _ZN14rustc_demangle2v07Printer25print_lifetime_from_index17h46a05c203a5d3dbbE
00000000000ae25d l     F .text	000000000000038c              _ZN14rustc_demangle2v07Printer10print_type28_$u7b$$u7b$closure$u7d$$u7d$17h5ba4d11d0e94ea01E
00000000000b1151 l     F .text	0000000000000150              _ZN4core3str4iter22SplitInternal$LT$P$GT$4next17h505d41c381a56ad4E
00000000000af63a l     F .text	0000000000000169              _ZN14rustc_demangle2v07Printer16print_const_uint17h3036476e7e0869a8E
00000000000aee2c l     F .text	00000000000000ee              _ZN14rustc_demangle2v07Printer13print_backref17h9a7539d9f3744d32E
00000000000af7f9 l     F .text	0000000000000329              _ZN14rustc_demangle2v07Printer23print_const_str_literal17hb710d4c2abae7855E
00000000000afc13 l     F .text	00000000000001af              _ZN14rustc_demangle2v07Printer26print_quoted_escaped_chars17hc3556f0b89eae57fE
00000000000af598 l     F .text	00000000000000a2              _ZN14rustc_demangle2v07Printer14print_sep_list17hf5705618bb050f48E
00000000000af05e l     F .text	0000000000000097              _ZN14rustc_demangle2v07Printer14print_sep_list17h0db40400773c2d7bE
00000000000af322 l     F .text	00000000000001d9              _ZN14rustc_demangle2v07Printer14print_sep_list17h5c3ab01bc0013742E
00000000000af0f5 l     F .text	000000000000022d              _ZN14rustc_demangle2v07Printer14print_sep_list17h1e012dcc2dc64359E
00000000000afdc2 l     F .text	0000000000000147              _ZN14rustc_demangle2v07Printer30print_path_maybe_open_generics17haff23d5dc6d762f0E
00000000000b246e l     F .text	0000000000000369              _ZN80_$LT$core..str..pattern..StrSearcher$u20$as$u20$core..str..pattern..Searcher$GT$4next17hb7442b423b123bbdE
00000000000b0f8a l     F .text	0000000000000015              _ZN45_$LT$$LP$$RP$$u20$as$u20$core..fmt..Debug$GT$3fmt17h03e6a69f3a2ff73dE
00000000000b1372 l     F .text	0000000000000015              _ZN53_$LT$core..fmt..Error$u20$as$u20$core..fmt..Debug$GT$3fmt17h71ca773022667bfcE
00000000000b18dc l     F .text	0000000000000045              _ZN68_$LT$core..num..error..ParseIntError$u20$as$u20$core..fmt..Debug$GT$3fmt17ha3a87f33f6dad506E
00000000000b1964 l     F .text	0000000000000015              _ZN71_$LT$rustc_demangle..SizeLimitExhausted$u20$as$u20$core..fmt..Debug$GT$3fmt17h6b7b5238c5bed982E
0000000000000000 l    df *ABS*	0000000000000000              miniz_oxide.f03a5b353289fb1a-cgu.0
00000000000b47f6 l     F .text	0000000000000452              _ZN11miniz_oxide7inflate4core9init_tree17hb1e89aa4860406f5E
00000000000b43e1 l     F .text	0000000000000415              _ZN11miniz_oxide7inflate4core8transfer17h2940dca7f09c2093E
00000000000b423f l     F .text	00000000000001a2              _ZN11miniz_oxide7inflate4core11apply_match17hb67094addd8aa83fE
0000000000000000 l    df *ABS*	0000000000000000              adler2.cc2050017772acbf-cgu.0
0000000000000000 l    df *ABS*	0000000000000000              alloc.2f8cfedda7e895ee-cgu.0
00000000000b5140 l     F .text	0000000000000036              _ZN4core3fmt5Write9write_fmt17h3d6dd715ca13df96E
00000000000b5180 l     F .text	0000000000000018              _ZN4core3ptr42drop_in_place$LT$alloc..string..String$GT$17h3dedcf9b7cbe28b0E
00000000000b5af0 l     F .text	00000000000000a5              _ZN5alloc7raw_vec20RawVecInner$LT$A$GT$7reserve21do_reserve_and_handle17h48474052ea66577eE
00000000000238a0 l       .gcc_except_table	0000000000000000              GCC_except_table8
00000000000b51a0 l     F .text	0000000000000015              _ZN53_$LT$core..fmt..Error$u20$as$u20$core..fmt..Debug$GT$3fmt17h71ca773022667bfcE
00000000000b51c0 l     F .text	0000000000000107              _ZN58_$LT$alloc..string..String$u20$as$u20$core..fmt..Write$GT$10write_char17h631179a280c97600E
00000000000b52d0 l     F .text	000000000000005c              _ZN58_$LT$alloc..string..String$u20$as$u20$core..fmt..Write$GT$9write_str17hd717793223240653E
00000000000238b8 l       .gcc_except_table	0000000000000000              GCC_except_table23
00000000000238d4 l       .gcc_except_table	0000000000000000              GCC_except_table25
00000000000238e4 l       .gcc_except_table	0000000000000000              GCC_except_table26
00000000000b5a20 l     F .text	0000000000000071              _ZN5alloc7raw_vec11finish_grow17ha82b0bb79deedd2fE
00000000000238fc l       .gcc_except_table	0000000000000000              GCC_except_table28
0000000000023914 l       .gcc_except_table	0000000000000000              GCC_except_table30
0000000000023920 l       .gcc_except_table	0000000000000000              GCC_except_table32
0000000000023934 l       .gcc_except_table	0000000000000000              GCC_except_table33
0000000000023968 l       .gcc_except_table	0000000000000000              GCC_except_table34
0000000000023980 l       .gcc_except_table	0000000000000000              GCC_except_table41
00000000000239a0 l       .gcc_except_table	0000000000000000              GCC_except_table46
00000000000239b0 l       .gcc_except_table	0000000000000000              GCC_except_table50
00000000000239d8 l       .gcc_except_table	0000000000000000              GCC_except_table53
00000000000239ec l       .gcc_except_table	0000000000000000              GCC_except_table54
00000000000239f8 l       .gcc_except_table	0000000000000000              GCC_except_table55
0000000000023a0c l       .gcc_except_table	0000000000000000              GCC_except_table56
0000000000023a18 l       .gcc_except_table	0000000000000000              GCC_except_table57
0000000000023a44 l       .gcc_except_table	0000000000000000              GCC_except_table60
0000000000023a5c l       .gcc_except_table	0000000000000000              GCC_except_table62
0000000000023a74 l       .gcc_except_table	0000000000000000              GCC_except_table63
0000000000023a90 l       .gcc_except_table	0000000000000000              GCC_except_table64
0000000000023ab8 l       .gcc_except_table	0000000000000000              GCC_except_table66
0000000000023ad4 l       .gcc_except_table	0000000000000000              GCC_except_table67
0000000000023afc l       .gcc_except_table	0000000000000000              GCC_except_table68
00000000000b5ab0 l     F .text	0000000000000037              _ZN5alloc7raw_vec17capacity_overflow17h7f466b80d9860e2dE
0000000000023b08 l       .gcc_except_table	0000000000000000              GCC_except_table85
0000000000023b1c l       .gcc_except_table	0000000000000000              GCC_except_table90
0000000000023b3c l       .gcc_except_table	0000000000000000              GCC_except_table96
0000000000023b50 l       .gcc_except_table	0000000000000000              GCC_except_table97
0000000000023b64 l       .gcc_except_table	0000000000000000              GCC_except_table98
0000000000000000 l    df *ABS*	0000000000000000              core.3960b0be9a8ab2fb-cgu.0
00000000000be1f0 l     F .text	0000000000000223              _ZN4core4char7methods22_$LT$impl$u20$char$GT$16escape_debug_ext17h8334c241ae444a00E
00000000000b6230 l     F .text	000000000000000b              _ZN42_$LT$$RF$T$u20$as$u20$core..fmt..Debug$GT$3fmt17h15a4a5388d5696cfE
00000000000b6b80 l     F .text	000000000000019c              _ZN4core3fmt3num50_$LT$impl$u20$core..fmt..Debug$u20$for$u20$u64$GT$3fmt17h14a8daad5d2c4a1aE
00000000000b6240 l     F .text	0000000000000010              _ZN42_$LT$$RF$T$u20$as$u20$core..fmt..Debug$GT$3fmt17h251abdc703b30ab0E
00000000000b6250 l     F .text	0000000000000151              _ZN42_$LT$$RF$T$u20$as$u20$core..fmt..Debug$GT$3fmt17h4cabdc745767db83E
00000000000b6d20 l     F .text	00000000000001ac              _ZN4core3fmt3num52_$LT$impl$u20$core..fmt..Debug$u20$for$u20$usize$GT$3fmt17hfbad01e72c46968eE
00000000000b6490 l     F .text	0000000000000013              _ZN44_$LT$$RF$T$u20$as$u20$core..fmt..Display$GT$3fmt17hbdbeff7da480a13cE
00000000000b86a0 l     F .text	000000000000025a              _ZN4core3fmt9Formatter19pad_formatted_parts17h2def3492bfdfcca6E
00000000000b71e0 l     F .text	0000000000000010              _ZN4core3fmt5Write9write_fmt17h1ab6d3377530f3ebE
00000000000b71f0 l     F .text	00000000000003fc              _ZN4core3fmt5float29float_to_decimal_common_exact17h1597fe00f56ccc2eE
00000000000b75f0 l     F .text	00000000000002fd              _ZN4core3fmt5float32float_to_decimal_common_shortest17hc2d9f98260f1248bE
00000000000b8130 l     F .text	0000000000000054              _ZN4core3fmt9Formatter12pad_integral12write_prefix17h91bebf539ca76f5fE
00000000000b8900 l     F .text	0000000000000292              _ZN4core3fmt9Formatter21write_formatted_parts17hf289127d028b250dE
00000000000b99e0 l     F .text	00000000000001dc              _ZN4core3num7flt2dec8strategy5grisu16format_exact_opt14possibly_round17h0b94e0cf466dc724E
000000000001bd14 l     O .rodata	0000000000000028              _ZN4core3num7flt2dec8strategy6dragon5POW1017h99187025c1700636E
000000000001bd8c l     O .rodata	000000000000004c              _ZN4core3num7flt2dec8strategy6dragon9POW5TO25617h5cf25fbf74a8b1a2E
000000000001bd3c l     O .rodata	0000000000000008              _ZN4core3num7flt2dec8strategy6dragon8POW5TO1617h1bd400386f7abc36E
000000000001bd44 l     O .rodata	000000000000000c              _ZN4core3num7flt2dec8strategy6dragon8POW5TO3217ha05f689e48a401c8E
000000000001bd50 l     O .rodata	0000000000000014              _ZN4core3num7flt2dec8strategy6dragon8POW5TO6417he923394f5457e5dcE
000000000001bd64 l     O .rodata	0000000000000028              _ZN4core3num7flt2dec8strategy6dragon9POW5TO12817hd37f8fae4ac318dbE
00000000000c0550 l     F .text	000000000000004a              _ZN71_$LT$core..ops..range..Range$LT$Idx$GT$$u20$as$u20$core..fmt..Debug$GT$3fmt17h6631430381a1462fE
000000000001ee28 l     O .rodata	0000000000000088              _ZN4core7unicode12unicode_data15grapheme_extend17SHORT_OFFSET_RUNS17hc1bf05b81453b822E
000000000001b098 l     O .rodata	00000000000002ef              _ZN4core7unicode12unicode_data15grapheme_extend7OFFSETS17h386fafe1f7d0fcc1E
0000000000023b74 l       .gcc_except_table	0000000000000000              GCC_except_table379
00000000000bf510 l     F .text	00000000000005ce              _ZN57_$LT$core..time..Duration$u20$as$u20$core..fmt..Debug$GT$3fmt11fmt_decimal17h4a6f36bf1eb75ab0E
00000000000bfae0 l     F .text	0000000000000251              _ZN57_$LT$core..time..Duration$u20$as$u20$core..fmt..Debug$GT$3fmt11fmt_decimal28_$u7b$$u7b$closure$u7d$$u7d$17h5c50f79dfca8a620E
0000000000000000 l    df *ABS*	0000000000000000              compiler_builtins.c9a3593b416c4cad-cgu.124
0000000000000000 l    df *ABS*	0000000000000000              compiler_builtins.c9a3593b416c4cad-cgu.144
0000000000000000 l    df *ABS*	0000000000000000              compiler_builtins.c9a3593b416c4cad-cgu.223
0000000000000000 l    df *ABS*	0000000000000000              compiler_builtins.c9a3593b416c4cad-cgu.259
0000000000000000 l    df *ABS*	0000000000000000              crtstuff.c
00000000000272f0 l     O .eh_frame	0000000000000000              __FRAME_END__
00000000000cc988 l     O .tm_clone_table	0000000000000000              .hidden __TMC_END__
00000000000cb950 l       .got.plt	0000000000000000              .hidden _GLOBAL_OFFSET_TABLE_
00000000000c98d8 l       .dynamic	0000000000000000              .hidden _DYNAMIC
00000000000c0750 l     F .init	0000000000000000              .hidden _init
00000000000c076c l     F .fini	0000000000000000              .hidden _fini
0000000000035800 g     F .text	0000000000000026              _start
000000000003c030 g     F .text	0000000000000020              main
0000000000000000       F *UND*	0000000000000000              __libc_start_main
0000000000000000  w      *UND*	0000000000000000              __gmon_start__
0000000000000000  w      *UND*	0000000000000000              _ITM_deregisterTMCloneTable
0000000000000000  w      *UND*	0000000000000000              _ITM_registerTMCloneTable
0000000000000000  w    F *UND*	0000000000000000              __cxa_finalize
00000000000789d0 g     F .text	000000000000006f              _RNvCskdKJRKLKjqM_7___rustc10rust_panic
0000000000078b70 g     F .text	00000000000000cb              _RNvCskdKJRKLKjqM_7___rustc17___rust_drop_panic
0000000000078c40 g     F .text	000000000000001d              _RNvCskdKJRKLKjqM_7___rustc17rust_begin_unwind
0000000000078cf0 g     F .text	00000000000000cb              _RNvCskdKJRKLKjqM_7___rustc24___rust_foreign_exception
00000000000c17f8 g     O .init_array	0000000000000008              _ZN3std3sys4args4unix3imp15ARGV_INIT_ARRAY17h6e38df83e616bd18E
00000000000aa8d0 g     F .text	00000000000005bf              rust_eh_personality
00000000000aae90 g     F .text	00000000000000a1              _RNvCskdKJRKLKjqM_7___rustc18___rust_start_panic
00000000000aaf40 g     F .text	0000000000000052              _RNvCskdKJRKLKjqM_7___rustc20___rust_panic_cleanup
000000000000f940  w    O .debug_gdb_scripts	0000000000000022              __rustc_debug_gdb_scripts_section__
00000000000ab577 g     F .text	0000000000000024              _ZN5alloc3vec16Vec$LT$T$C$A$GT$7reserve17h61de6076a7a02d5fE
00000000000ab48f g     F .text	0000000000000064              _ZN132_$LT$alloc..vec..Vec$LT$T$C$A$GT$$u20$as$u20$alloc..vec..spec_extend..SpecExtend$LT$$RF$T$C$core..slice..iter..Iter$LT$T$GT$$GT$$GT$11spec_extend17hf4fb6bd6ba18bf21E
00000000000bf210 g     F .text	0000000000000045              _ZN4core9panicking18panic_nounwind_fmt17h622822847ebd61beE
00000000000bf4e0 g     F .text	0000000000000020              _ZN4core9panicking9panic_fmt17h92c8e5abe71dd8d1E
00000000000beeb0 g     F .text	0000000000000037              _ZN4core9panicking11panic_const23panic_const_div_by_zero17hd4705242238fd5f4E
00000000000bf393 g     F .text	0000000000000014              _ZN4core9panicking19panic_cannot_unwind17hebe3a4840b691755E
00000000000bef70 g     F .text	0000000000000037              _ZN4core9panicking11panic_const24panic_const_div_overflow17h7b996a3de29d2240E
00000000000beef0 g     F .text	0000000000000037              _ZN4core9panicking11panic_const23panic_const_rem_by_zero17h3e6118cf5f85921cE
00000000000bf030 g     F .text	0000000000000037              _ZN4core9panicking11panic_const24panic_const_rem_overflow17h989421344f58f27dE
0000000000000000       F *UND*	0000000000000000              memcpy
00000000000bf1a6 g     F .text	000000000000005c              _ZN4core9panicking18panic_bounds_check17hbc09f5d79f1a5789E
00000000000b92a0 g     F .text	0000000000000010              _ZN4core3fmt9Formatter9write_str17haacafd99ed76659fE
00000000000be160 g     F .text	000000000000008b              _ZN4core4char7methods15encode_utf8_raw8do_panic7runtime17h52dfe5cbae560849E
00000000000be9e0 g     F .text	000000000000013f              _ZN4core7unicode12unicode_data11conversions8to_lower17h3471f41522785657E
00000000000b78f0 g     F .text	0000000000000034              _ZN4core3fmt5float52_$LT$impl$u20$core..fmt..Display$u20$for$u20$f64$GT$3fmt17hd9bcbe11d7fbf124E
00000000000bf117 g     F .text	0000000000000030              _ZN4core9panicking13assert_failed17hd2726b0e7e564783E
0000000000055100 g     F .text	00000000000000ac              _ZN6chrono7weekday7Weekday10days_since17hd3b81e0655d77c15E
00000000000bef30 g     F .text	0000000000000037              _ZN4core9panicking11panic_const24panic_const_add_overflow17h813bff2d249a139bE
00000000000ac889 g     F .text	00000000000000f3              _ZN5alloc7raw_vec20RawVecInner$LT$A$GT$14grow_amortized17hdf6f3792cb1bc5ecE
00000000000b5a91 g     F .text	0000000000000017              _ZN5alloc7raw_vec12handle_error17h5794e6eba25188a7E
0000000000048dd0 g     F .text	00000000000000ff              _ZN4core4iter8adapters7flatten17and_then_or_clear17h8b5915c98d8163a2E
000000000005ba90 g     F .text	0000000000000022              _ZN63_$LT$I$u20$as$u20$core..iter..traits..collect..IntoIterator$GT$9into_iter17he30fa3a2ecd4d33bE
0000000000048ad0 g     F .text	000000000000002a              _ZN4core3ptr72drop_in_place$LT$core..option..Option$LT$core..char..ToLowercase$GT$$GT$17he99fa30c65757f5dE
0000000000000000       F *UND*	0000000000000000              _Unwind_Resume
00000000000bf150 g     F .text	0000000000000042              _ZN4core9panicking14panic_nounwind17h0b58b167cb35d9feE
0000000000062660 g     F .text	0000000000000020              _ZN4core3cmp5impls69_$LT$impl$u20$core..cmp..PartialEq$LT$$RF$B$GT$$u20$for$u20$$RF$A$GT$2eq17h87c03c1ca21c6854E
00000000000bf192 g     F .text	0000000000000014              _ZN4core9panicking16panic_in_cleanup17h5eff40bcc4481d72E
00000000000be4e0 g     F .text	000000000000003b              _ZN4core5slice4sort6shared9smallsort22panic_on_ord_violation17h481967bb377c264aE
0000000000078010 g     F .text	0000000000000068              _ZN4core3cmp3Ord3min17hd1736a13ff7ace0eE
000000000004f900 g     F .text	000000000000001b              _ZN73_$LT$chrono..offset..fixed..FixedOffset$u20$as$u20$core..fmt..Display$GT$3fmt17h12b31fb638805389E
0000000000074430 g     F .text	000000000000000d              _ZN4core3ptr42drop_in_place$LT$alloc..string..String$GT$17haf0f0fdba1ae5b28E
0000000000042180 g     F .text	000000000000000f              _ZN4core3fmt5Write9write_fmt17hdaf71e31f09eeabbE
0000000000055620 g     F .text	000000000000003b              _ZN4core3fmt2rt38_$LT$impl$u20$core..fmt..Arguments$GT$9new_const17h91dca1a7639c644cE
0000000000085b60 g     F .text	00000000000000e7              _ZN3std2io5stdio6_print17h361a6d98ea723aceE
0000000000086010 g     F .text	00000000000007ea              _ZN3std2rt19lang_start_internal17h6ba36b077a531782E
000000000004f920 g     F .text	0000000000000008              _ZN77_$LT$chrono..offset..fixed..FixedOffset$u20$as$u20$chrono..offset..Offset$GT$3fix17hb14b7df2f9e769ecE
0000000000048f60 g     F .text	00000000000000c3              _ZN6chrono5naive8datetime13NaiveDateTime22overflowing_add_offset17hd4f1156ece93bf92E
0000000000065b40 g     F .text	000000000000002a              _ZN6chrono6format8strftime13StrftimeItems3new17h991e32b3bca0a160E
0000000000054c60 g     F .text	0000000000000067              _ZN6chrono5naive4time9NaiveTime3hms17h245dc38529c0e6e2E
00000000000561f0 g     F .text	0000000000000038              _ZN6chrono6offset5local5Local3now17ha571b574e52308ffE
00000000000555a0 g     F .text	000000000000003b              _ZN4core3fmt2rt38_$LT$impl$u20$core..fmt..Arguments$GT$6new_v117h67e3c6de72979693E
00000000000be960 g     F .text	0000000000000076              _ZN4core6result13unwrap_failed17h0501379eaec3e720E
0000000000074440 g     F .text	000000000000000d              _ZN4core3ptr42drop_in_place$LT$std..io..error..Error$GT$17h69da58c5fdf08b3cE
0000000000074410 g     F .text	000000000000000d              _ZN4core3ptr34drop_in_place$LT$std..fs..File$GT$17h3ead15330b5eee65E
00000000000bf0b0 g     F .text	0000000000000037              _ZN4core9panicking11panic_const24panic_const_sub_overflow17he1b79e19d78b00ecE
000000000009b360 g     F .text	0000000000000006              _ZN58_$LT$std..io..error..Error$u20$as$u20$core..fmt..Debug$GT$3fmt17h62ceb23194058131E
0000000000048780 g     F .text	000000000000003e              _ZN4core3ptr115drop_in_place$LT$core..option..Option$LT$$LP$alloc..string..String$C$chrono..offset..fixed..FixedOffset$RP$$GT$$GT$17he50d789a1da896d4E
00000000000746d0 g     F .text	0000000000000038              _ZN4core3ptr81drop_in_place$LT$core..result..Result$LT$$LP$$RP$$C$std..io..error..Error$GT$$GT$17hadf8b809f5154552E
00000000000ac843 g     F .text	0000000000000046              _ZN5alloc7raw_vec20RawVecInner$LT$A$GT$10deallocate17h568b30ca3d6e35ecE
000000000005afc0 g     F .text	0000000000000007              _ZN4core3num7nonzero16NonZero$LT$T$GT$3get17h70faf50bdbf03470E
0000000000042820 g     F .text	0000000000000173              _ZN6chrono5naive7isoweek7IsoWeek8from_yof17h4c5dffe2d5cf822aE
000000000006e310 g     F .text	0000000000000147              _ZN5alloc7raw_vec20RawVecInner$LT$A$GT$16with_capacity_in17h05dfcbe42759740dE
00000000000be550 g     F .text	0000000000000037              _ZN4core5slice5index16slice_index_fail17hfe436548ecebea33E
0000000000066ed0 g     F .text	00000000000000d0              _ZN4core6option15Option$LT$T$GT$11map_or_else17hb21b2e0c5aabfb2dE
00000000000bcf40 g     F .text	0000000000000037              _ZN4core3num9int_log1030panic_for_nonpositive_argument17h8fb30e18e1f4eafcE
00000000000be520 g     F .text	0000000000000026              _ZN4core5slice4sort6stable5drift11sqrt_approx17h43164af9ba479437E
00000000000671b0 g     F .text	000000000000004a              _ZN4core6option15Option$LT$T$GT$6as_ref17h1c25095cf9fbd121E
000000000006a400 g     F .text	000000000000000d              _ZN6chrono6format7locales11unlocalized12short_months17he72d4980af663beeE
000000000006a3f0 g     F .text	000000000000000d              _ZN6chrono6format7locales11unlocalized11long_months17h5221c3f05d635908E
000000000006a440 g     F .text	000000000000000d              _ZN6chrono6format7locales11unlocalized14short_weekdays17h1fbf7273c3a6bce3E
000000000006a420 g     F .text	000000000000000d              _ZN6chrono6format7locales11unlocalized13long_weekdays17hb8fe4f11954583b8E
00000000000550b0 g     F .text	0000000000000043              _ZN6chrono6traits8Timelike6hour1217h2064d18eaabd2703E
000000000006a450 g     F .text	000000000000000d              _ZN6chrono6format7locales11unlocalized5am_pm17h21b14fc8b2439855E
0000000000061630 g     F .text	000000000000002d              _ZN79_$LT$core..result..Result$LT$T$C$E$GT$$u20$as$u20$core..ops..try_trait..Try$GT$6branch17h3feba2cf5d12e6b7E
0000000000060040 g     F .text	0000000000000005              _ZN153_$LT$core..result..Result$LT$T$C$F$GT$$u20$as$u20$core..ops..try_trait..FromResidual$LT$core..result..Result$LT$core..convert..Infallible$C$E$GT$$GT$$GT$13from_residual17hd79bf81f9662e60bE
000000000006a410 g     F .text	000000000000000d              _ZN6chrono6format7locales11unlocalized13decimal_point17h0343b0fd9603cf00E
000000000004ff30 g     F .text	000000000000002b              _ZN4core3fmt2rt8Argument11new_display17h309d66156ba10829E
000000000004ffc0 g     F .text	000000000000002b              _ZN4core3fmt2rt8Argument11new_display17hfb31784e26008204E
0000000000055560 g     F .text	000000000000003b              _ZN4core3fmt2rt38_$LT$impl$u20$core..fmt..Arguments$GT$6new_v117h2de2b0283a321dfaE
0000000000062ca0 g     F .text	000000000000072f              _ZN6chrono6format10formatting46_$LT$impl$u20$chrono..format..OffsetFormat$GT$6format17h427ab40e5220835dE
0000000000068880 g     F .text	00000000000006b2              _ZN6chrono6format10formatting13write_rfc282217ha7a3642233e6f2a3E
0000000000068f40 g     F .text	0000000000000b56              _ZN6chrono6format10formatting13write_rfc333917hce2e01bab6354c3dE
0000000000069b90 g     F .text	000000000000013c              _ZN6chrono6format10formatting22DelayedFormat$LT$I$GT$14format_numeric10write_year17h9d6dc2ded74b1423E
000000000006a290 g     F .text	0000000000000155              _ZN6chrono6format10formatting22DelayedFormat$LT$I$GT$14format_numeric9write_two17h4ce0cb71b54e699bE
0000000000055040 g     F .text	0000000000000067              _ZN6chrono6traits8Datelike7quarter17h0d9997c7350c1c36E
000000000006a240 g     F .text	0000000000000044              _ZN6chrono6format10formatting22DelayedFormat$LT$I$GT$14format_numeric9write_one17h08f15258ca526fceE
00000000000540b0 g     F .text	00000000000000b3              _ZN6chrono5naive4date9NaiveDate10weeks_from17h363d4f45fde3a1f9E
0000000000069cd0 g     F .text	000000000000056b              _ZN6chrono6format10formatting22DelayedFormat$LT$I$GT$14format_numeric7write_n17h06a213ff16776b19E
0000000000049070 g     F .text	0000000000000035              _ZN6chrono5naive8datetime13NaiveDateTime7and_utc17hf6e4e528f480ce6bE
0000000000060d10 g     F .text	00000000000000cf              _ZN6chrono8datetime18DateTime$LT$Tz$GT$9timestamp17h32d1ba87bc557bcaE
00000000000674a0 g     F .text	0000000000000040              _ZN4core6option15Option$LT$T$GT$9unwrap_or17h829c356c280f9ed0E
000000000006a430 g     F .text	0000000000000001              _ZN6chrono6format7locales11unlocalized14default_locale17h452305b79952ef33E
0000000000062c40 g     F .text	0000000000000018              _ZN63_$LT$I$u20$as$u20$core..iter..traits..collect..IntoIterator$GT$9into_iter17hbf2340b2afc0ec9dE
0000000000065e20 g     F .text	000000000000019d              _ZN98_$LT$chrono..format..strftime..StrftimeItems$u20$as$u20$core..iter..traits..iterator..Iterator$GT$4next17h67524ba7078c85c3E
0000000000062850 g     F .text	0000000000000009              _ZN51_$LT$T$u20$as$u20$core..borrow..Borrow$LT$T$GT$$GT$6borrow17hb27c1a97b44733beE
00000000000488f0 g     F .text	000000000000004f              _ZN4core3ptr41drop_in_place$LT$chrono..format..Item$GT$17h878949de0d39e2f4E
00000000000b8e60 g     F .text	0000000000000439              _ZN4core3fmt9Formatter3pad17h36dd57a07a89d236E
00000000000b7930 g     F .text	0000000000000211              _ZN4core3fmt5write17h80461e1e45e4fdd2E
0000000000000000       F *UND*	0000000000000000              memset
00000000000bf4a0 g     F .text	000000000000003c              _ZN4core9panicking5panic17ha264d2bb233f2b69E
00000000000781b0 g     F .text	0000000000000249              _ZN4core3str11validations15next_code_point17hab2cad1d754e2c28E
0000000000068280 g     F .text	000000000000007f              _ZN3std2fs11OpenOptions4open17h74a4a27de481e049E
000000000008cf90 g     F .text	000000000000004b              _ZN48_$LT$std..fs..File$u20$as$u20$std..io..Write$GT$5write17h3e2a2b9d0b3d6134E
000000000006c680 g     F .text	00000000000001ea              _ZN3std2io5error14repr_bitpacked11decode_repr17h491edf0fd3e18030E
00000000000757a0 g     F .text	0000000000000088              _ZN110_$LT$core..ops..range..RangeFrom$LT$usize$GT$$u20$as$u20$core..slice..index..SliceIndex$LT$$u5b$T$u5d$$GT$$GT$5index17h507dcaa9029f0224E
00000000000741d0 g     F .text	0000000000000068              _ZN4core3cmp3Ord3max17h5d962d887d5714c5E
00000000000686c0 g     F .text	00000000000001b2              _ZN4core5array4iter10iter_inner78PolymorphicIter$LT$$u5b$core..mem..maybe_uninit..MaybeUninit$LT$T$GT$$u5d$$GT$9next_back17hc7952711df7045d8E
00000000000489d0 g     F .text	0000000000000059              _ZN4core3ptr70drop_in_place$LT$core..array..iter..IntoIter$LT$char$C$3_usize$GT$$GT$17hbb7527ec3799e907E
0000000000042050 g     F .text	0000000000000005              _RNvCskdKJRKLKjqM_7___rustc12___rust_alloc
0000000000042060 g     F .text	0000000000000005              _RNvCskdKJRKLKjqM_7___rustc14___rust_dealloc
0000000000042070 g     F .text	0000000000000005              _RNvCskdKJRKLKjqM_7___rustc14___rust_realloc
0000000000042080 g     F .text	0000000000000005              _RNvCskdKJRKLKjqM_7___rustc19___rust_alloc_zeroed
0000000000042090 g     F .text	0000000000000005              _RNvCskdKJRKLKjqM_7___rustc26___rust_alloc_error_handler
00000000000420a0 g     F .text	0000000000000003              _RNvCskdKJRKLKjqM_7___rustc42___rust_alloc_error_handler_should_panic_v2
00000000000420b0 g     F .text	0000000000000001              _RNvCskdKJRKLKjqM_7___rustc35___rust_no_alloc_shim_is_unstable_v2
0000000000042b80 g     F .text	0000000000000159              _ZN104_$LT$core..str..pattern..MultiCharEqSearcher$LT$C$GT$$u20$as$u20$core..str..pattern..ReverseSearcher$GT$9next_back17h4c4b87f18a84caf8E
0000000000042ce0 g     F .text	0000000000000159              _ZN104_$LT$core..str..pattern..MultiCharEqSearcher$LT$C$GT$$u20$as$u20$core..str..pattern..ReverseSearcher$GT$9next_back17h6f597c57832e9176E
0000000000042e40 g     F .text	0000000000000021              _ZN106_$LT$core..str..pattern..CharPredicateSearcher$LT$F$GT$$u20$as$u20$core..str..pattern..ReverseSearcher$GT$16next_reject_back17h0679be528a29e53dE
0000000000044da0 g     F .text	0000000000000091              _ZN4core3str7pattern15ReverseSearcher16next_reject_back17h9db694dce80e2138E
0000000000042e70 g     F .text	0000000000000021              _ZN106_$LT$core..str..pattern..CharPredicateSearcher$LT$F$GT$$u20$as$u20$core..str..pattern..ReverseSearcher$GT$16next_reject_back17h2f9a657138ddc5dbE
0000000000044e40 g     F .text	0000000000000091              _ZN4core3str7pattern15ReverseSearcher16next_reject_back17hda8421614cd13ec0E
0000000000043a20 g     F .text	00000000000001f5              _ZN4core3str7pattern13simd_contains28_$u7b$$u7b$closure$u7d$$u7d$17h747861af31ba5244E
0000000000043c20 g     F .text	00000000000001ff              _ZN4core3str7pattern13simd_contains28_$u7b$$u7b$closure$u7d$$u7d$17hdca899951a0e27c0E
0000000000043910 g     F .text	0000000000000091              _ZN4core3str7pattern13simd_contains28_$u7b$$u7b$closure$u7d$$u7d$17h04674f75ebbcbd52E
00000000000439b0 g     F .text	0000000000000065              _ZN4core3str7pattern13simd_contains28_$u7b$$u7b$closure$u7d$$u7d$17h53882b71d5927defE
0000000000043e20 g     F .text	0000000000000649              _ZN4core3str7pattern14TwoWaySearcher4next17hc6009661ce8de862E
0000000000044470 g     F .text	0000000000000649              _ZN4core3str7pattern14TwoWaySearcher4next17hfc72390fdf435851E
0000000000044ee0 g     F .text	0000000000000091              _ZN4core3str7pattern8Searcher10next_match17h00076051add39ad3E
0000000000046270 g     F .text	0000000000000159              _ZN97_$LT$core..str..pattern..MultiCharEqSearcher$LT$C$GT$$u20$as$u20$core..str..pattern..Searcher$GT$4next17hd7843bdf6a53f10bE
0000000000044f80 g     F .text	0000000000000091              _ZN4core3str7pattern8Searcher10next_match17hc64ab19a3fa59d1bE
0000000000046110 g     F .text	0000000000000159              _ZN97_$LT$core..str..pattern..MultiCharEqSearcher$LT$C$GT$$u20$as$u20$core..str..pattern..Searcher$GT$4next17haba67d0799aec128E
0000000000045020 g     F .text	0000000000000091              _ZN4core3str7pattern8Searcher11next_reject17h16a11162778b73e6E
00000000000463d0 g     F .text	0000000000000159              _ZN97_$LT$core..str..pattern..MultiCharEqSearcher$LT$C$GT$$u20$as$u20$core..str..pattern..Searcher$GT$4next17hea84ca332591c284E
00000000000450c0 g     F .text	0000000000000091              _ZN4core3str7pattern8Searcher11next_reject17h3d10b72f47af7981E
0000000000045fb0 g     F .text	0000000000000159              _ZN97_$LT$core..str..pattern..MultiCharEqSearcher$LT$C$GT$$u20$as$u20$core..str..pattern..Searcher$GT$4next17h0f8021645f4ece38E
0000000000045cb0 g     F .text	00000000000000b5              _ZN95_$LT$core..str..pattern..MultiCharEqPattern$LT$C$GT$$u20$as$u20$core..str..pattern..Pattern$GT$13into_searcher17h45d3b555c34dd8aaE
0000000000045d70 g     F .text	00000000000000b5              _ZN95_$LT$core..str..pattern..MultiCharEqPattern$LT$C$GT$$u20$as$u20$core..str..pattern..Pattern$GT$13into_searcher17h8f5fe54d7bfa9da3E
0000000000045e30 g     F .text	00000000000000b5              _ZN95_$LT$core..str..pattern..MultiCharEqPattern$LT$C$GT$$u20$as$u20$core..str..pattern..Pattern$GT$13into_searcher17h9aa64d4c2b42ffe6E
0000000000045ef0 g     F .text	00000000000000b5              _ZN95_$LT$core..str..pattern..MultiCharEqPattern$LT$C$GT$$u20$as$u20$core..str..pattern..Pattern$GT$13into_searcher17ha556b49b9efe7dc8E
0000000000046530 g     F .text	0000000000000021              _ZN99_$LT$core..str..pattern..CharPredicateSearcher$LT$F$GT$$u20$as$u20$core..str..pattern..Searcher$GT$10next_match17hb0322868a19d462eE
0000000000046560 g     F .text	0000000000000021              _ZN99_$LT$core..str..pattern..CharPredicateSearcher$LT$F$GT$$u20$as$u20$core..str..pattern..Searcher$GT$10next_match17hb433f29b265259d7E
0000000000046590 g     F .text	0000000000000021              _ZN99_$LT$core..str..pattern..CharPredicateSearcher$LT$F$GT$$u20$as$u20$core..str..pattern..Searcher$GT$11next_reject17h0fc6dc78d2e96befE
00000000000465c0 g     F .text	0000000000000021              _ZN99_$LT$core..str..pattern..CharPredicateSearcher$LT$F$GT$$u20$as$u20$core..str..pattern..Searcher$GT$11next_reject17hd76935c02912cf0fE
0000000000042140 g     F .text	000000000000001d              _ZN42_$LT$$RF$T$u20$as$u20$core..fmt..Debug$GT$3fmt17h512c45bb11a30cdaE
0000000000042160 g     F .text	000000000000001d              _ZN44_$LT$$RF$T$u20$as$u20$core..fmt..Display$GT$3fmt17hd1fb260bb4128f55E
0000000000042a20 g     F .text	000000000000015f              _ZN75_$LT$$RF$mut$u20$W$u20$as$u20$core..fmt..Write..write_fmt..SpecWriteFmt$GT$14spec_write_fmt17h65a21ed54b5633b6E
0000000000042190 g     F .text	000000000000005c              _ZN4core4cell16RefCell$LT$T$GT$10borrow_mut17h458978afec842c51E
00000000000421f0 g     F .text	00000000000000a0              _ZN4core4cell16RefCell$LT$T$GT$14try_borrow_mut17h4e3826428c01b052E
00000000000be0f0 g     F .text	000000000000000a              _ZN4core4cell22panic_already_borrowed17h1421a3fb924cdd88E
0000000000042290 g     F .text	000000000000003c              _ZN4core4iter6traits8iterator8Iterator3any5check28_$u7b$$u7b$closure$u7d$$u7d$17hb708f146d39a34c8E
00000000000422d0 g     F .text	0000000000000034              _ZN4core4iter6traits8iterator8Iterator3any5check28_$u7b$$u7b$closure$u7d$$u7d$17hcc813b9905589287E
00000000000be420 g     F .text	0000000000000026              _ZN4core5alloc6layout6Layout19is_size_align_valid17h26adf6c6175f55f5E
00000000000b63b0 g     F .text	0000000000000012              _ZN42_$LT$str$u20$as$u20$core..fmt..Display$GT$3fmt17hc26b542d45893745E
0000000000050a90 g     F .text	000000000000001b              _ZN4core3ops5range25RangeInclusive$LT$Idx$GT$8contains17h173562bad743ee7dE
000000000004fea0 g     F .text	000000000000002b              _ZN4core3fmt2rt8Argument11new_display17h01cc02107c34d090E
00000000000b8ce0 g     F .text	00000000000000aa              _ZN4core3fmt9Formatter26debug_struct_field1_finish17h8a12e96a3fe33b10E
00000000000541c0 g     F .text	0000000000000072              _ZN6chrono5naive4date9NaiveDate12from_ymd_opt17hc8daaf79ac1108f9E
00000000000786a0 g     F .text	000000000000002d              _ZN4core3str6traits66_$LT$impl$u20$core..ops..index..Index$LT$I$GT$$u20$for$u20$str$GT$5index17h44a49c1965aa73bcE
0000000000051910 g     F .text	0000000000000035              _ZN4core5slice29_$LT$impl$u20$$u5b$T$u5d$$GT$5first17hc1c5171c0e390f12E
00000000000befb0 g     F .text	0000000000000037              _ZN4core9panicking11panic_const24panic_const_mul_overflow17h865155b80b7b9ba2E
00000000000beff0 g     F .text	0000000000000037              _ZN4core9panicking11panic_const24panic_const_neg_overflow17h909b098d51508a92E
00000000000518f0 g     F .text	000000000000001c              _ZN4core5slice29_$LT$impl$u20$$u5b$T$u5d$$GT$4iter17hb15180fcd23fa11cE
0000000000067460 g     F .text	0000000000000040              _ZN4core6option15Option$LT$T$GT$9unwrap_or17h5fc2879412afbe90E
00000000000b8ba0 g     F .text	000000000000013a              _ZN4core3fmt9Formatter25debug_tuple_field1_finish17h8f1f32fd9454ecadE
00000000000429a0 g     F .text	0000000000000062              _ZN71_$LT$core..cell..RefCell$LT$T$GT$$u20$as$u20$core..default..Default$GT$7default17h48f66177230ab4b0E
0000000000067f80 g     F .text	0000000000000011              _ZN72_$LT$core..option..Option$LT$T$GT$$u20$as$u20$core..default..Default$GT$7default17h0a7147f1765046aaE
0000000000042a10 g     F .text	0000000000000009              _ZN74_$LT$core..cell..RefMut$LT$T$GT$$u20$as$u20$core..ops..deref..DerefMut$GT$9deref_mut17hb0109a41af08b6bcE
00000000000b0f0c g     F .text	000000000000002b              _ZN42_$LT$$RF$T$u20$as$u20$core..fmt..Debug$GT$3fmt17h66621c8cb3ab1452E
00000000000b0ef7 g     F .text	0000000000000015              _ZN42_$LT$$RF$T$u20$as$u20$core..fmt..Debug$GT$3fmt17h0a1302bc724a5ce4E
0000000000078090 g     F .text	0000000000000065              _ZN4core3ptr8non_null16NonNull$LT$T$GT$20offset_from_unsigned17ha1f239d4a5354855E
000000000005ba20 g     F .text	0000000000000019              _ZN53_$LT$F$u20$as$u20$core..str..pattern..MultiCharEq$GT$7matches17h096a564918e927bdE
0000000000056060 g     F .text	0000000000000019              _ZN53_$LT$F$u20$as$u20$core..str..pattern..MultiCharEq$GT$7matches17h48e550f50340b9d9E
0000000000050e30 g     F .text	0000000000000194              _ZN4core4iter6traits12double_ended19DoubleEndedIterator9try_rfold17h96125aa814a26bfeE
0000000000051970 g     F .text	0000000000000095              _ZN4core9core_simd6vector17Simd$LT$T$C$_$GT$4load17h04a702eb00a33bc0E
0000000000052050 g     F .text	000000000000013d              _ZN4core4iter6traits8iterator8Iterator8try_fold17h141810e2ab6b264eE
00000000000787a0 g     F .text	00000000000000eb              _ZN90_$LT$core..ops..control_flow..ControlFlow$LT$B$C$C$GT$$u20$as$u20$core..cmp..PartialEq$GT$2eq17hf67ebd90a33598c6E
00000000000be8e0 g     F .text	000000000000005b              _ZN4core6option13expect_failed17h1729d0bd73171c50E
0000000000000000       F *UND*	0000000000000000              memcmp
00000000000557f0 g     F .text	00000000000000ad              _ZN4core3ptr14read_unaligned17h0a40d240fd277013E
0000000000052360 g     F .text	0000000000000139              _ZN4core9core_simd5masks71_$LT$impl$u20$core..core_simd..masks..sealed..Sealed$u20$for$u20$i8$GT$5valid17h2ae36d3f12ed5d86E
000000000005b8f0 g     F .text	0000000000000110              _ZN4core9core_simd5masks9mask_impl17Mask$LT$T$C$_$GT$18to_bitmask_integer17h8af486d4e3385129E
0000000000051f50 g     F .text	00000000000000d9              _ZN4core4iter6traits8iterator8Iterator3zip17hd4077d7f4ff7755cE
00000000000558a0 g     F .text	0000000000000081              _ZN4core3ptr14read_unaligned17h248ef82d0415450eE
00000000000533c0 g     F .text	00000000000000b0              _ZN111_$LT$core..iter..adapters..zip..Zip$LT$A$C$B$GT$$u20$as$u20$core..iter..adapters..zip..ZipImpl$LT$A$C$B$GT$$GT$4next17h77a26054e793d662E
00000000000ab54f g     F .text	0000000000000028              _ZN4core5slice29_$LT$impl$u20$$u5b$T$u5d$$GT$9ends_with17hd93a2426c772260aE
00000000000bd9b0 g     F .text	0000000000000538              _ZN4core3str7pattern11StrSearcher3new17h2e461a66dd9667e2E
00000000000bcf80 g     F .text	000000000000000a              _ZN4core3str16slice_error_fail17h34415ed9969dc080E
0000000000062860 g     F .text	0000000000000019              _ZN53_$LT$F$u20$as$u20$core..str..pattern..MultiCharEq$GT$7matches17h40a6041e8d60020bE
0000000000062880 g     F .text	0000000000000019              _ZN53_$LT$F$u20$as$u20$core..str..pattern..MultiCharEq$GT$7matches17hfea4e1d5aa49f76bE
00000000000be940 g     F .text	0000000000000019              _ZN4core6option13unwrap_failed17h13b3e6f702cb1c04E
00000000000465f0 g     F .text	000000000000001d              _ZN42_$LT$$RF$T$u20$as$u20$core..fmt..Debug$GT$3fmt17h91d90db10513f314E
00000000000b7020 g     F .text	0000000000000065              _ZN4core3fmt3num55_$LT$impl$u20$core..fmt..LowerHex$u20$for$u20$usize$GT$3fmt17h50805a32588de60dE
00000000000b6a70 g     F .text	000000000000010a              _ZN4core3fmt3num3imp54_$LT$impl$u20$core..fmt..Display$u20$for$u20$usize$GT$3fmt17h47414302a1568dceE
00000000000b7170 g     F .text	0000000000000065              _ZN4core3fmt3num55_$LT$impl$u20$core..fmt..UpperHex$u20$for$u20$usize$GT$3fmt17h34bfbea6236dacd0E
00000000000b92b0 g     F .text	000000000000000a              _ZN4core3num22from_ascii_radix_panic17hbd13ec38c0e6ecfbE
0000000000053010 g     F .text	0000000000000058              _ZN104_$LT$core..iter..adapters..copied..Copied$LT$I$GT$$u20$as$u20$core..iter..traits..iterator..Iterator$GT$4next17h195de0165700193bE
000000000005ace0 g     F .text	0000000000000188              _ZN78_$LT$chrono..offset..local..inner..Cache$u20$as$u20$core..default..Default$GT$7default17h010dcf8b89c30f1cE
00000000000c05a0 g     F .text	000000000000001a              _ZN82_$LT$core..char..ToLowercase$u20$as$u20$core..iter..traits..iterator..Iterator$GT$4next17h6978ccb597117030E
0000000000048660 g     F .text	0000000000000043              _ZN4core3ptr102drop_in_place$LT$core..result..Result$LT$std..fs..File$C$chrono..offset..local..tz_info..Error$GT$$GT$17h510bf5775c2c758bE
00000000000489a0 g     F .text	000000000000002b              _ZN4core3ptr58drop_in_place$LT$chrono..offset..local..tz_info..Error$GT$17he3031b6d038efec8E
00000000000486b0 g     F .text	000000000000000d              _ZN4core3ptr103drop_in_place$LT$alloc..raw_vec..RawVec$LT$chrono..offset..local..tz_info..timezone..LeapSecond$GT$$GT$17h6f4f555e89dc4dafE
000000000006ba40 g     F .text	0000000000000017              _ZN77_$LT$alloc..raw_vec..RawVec$LT$T$C$A$GT$$u20$as$u20$core..ops..drop..Drop$GT$4drop17hb6a0e66b83889514E
00000000000486c0 g     F .text	000000000000000d              _ZN4core3ptr103drop_in_place$LT$alloc..raw_vec..RawVec$LT$chrono..offset..local..tz_info..timezone..Transition$GT$$GT$17h28e9482ed1ada360E
000000000006ba00 g     F .text	0000000000000017              _ZN77_$LT$alloc..raw_vec..RawVec$LT$T$C$A$GT$$u20$as$u20$core..ops..drop..Drop$GT$4drop17h1b3542137ed9c88cE
00000000000486d0 g     F .text	000000000000004d              _ZN4core3ptr105drop_in_place$LT$core..result..Result$LT$alloc..string..String$C$iana_time_zone..GetTimezoneError$GT$$GT$17h6956b950dbaeacfcE
0000000000074520 g     F .text	0000000000000028              _ZN4core3ptr53drop_in_place$LT$iana_time_zone..GetTimezoneError$GT$17hb5ec55841ca287a9E
0000000000048720 g     F .text	000000000000000d              _ZN4core3ptr106drop_in_place$LT$alloc..raw_vec..RawVec$LT$chrono..offset..local..tz_info..timezone..LocalTimeType$GT$$GT$17h0c16df6ae5a7950fE
000000000006ba20 g     F .text	0000000000000017              _ZN77_$LT$alloc..raw_vec..RawVec$LT$T$C$A$GT$$u20$as$u20$core..ops..drop..Drop$GT$4drop17h1d1a83be138b8951E
0000000000048730 g     F .text	0000000000000011              _ZN4core3ptr110drop_in_place$LT$core..cell..RefMut$LT$core..option..Option$LT$chrono..offset..local..inner..Cache$GT$$GT$$GT$17h5602ed325b1ef0cfE
0000000000048950 g     F .text	000000000000000c              _ZN4core3ptr45drop_in_place$LT$core..cell..BorrowRefMut$GT$17hbafb07187a7a9a52E
0000000000048750 g     F .text	0000000000000011              _ZN4core3ptr111drop_in_place$LT$core..cell..RefCell$LT$core..option..Option$LT$chrono..offset..local..inner..Cache$GT$$GT$$GT$17h85592fdc30db35f7E
0000000000048770 g     F .text	000000000000000d              _ZN4core3ptr114drop_in_place$LT$core..cell..UnsafeCell$LT$core..option..Option$LT$chrono..offset..local..inner..Cache$GT$$GT$$GT$17hf5f7e8e908f4689bE
0000000000048b10 g     F .text	000000000000003e              _ZN4core3ptr84drop_in_place$LT$core..option..Option$LT$chrono..offset..local..inner..Cache$GT$$GT$17h72f0f0c61007df62E
0000000000048b90 g     F .text	000000000000000d              _ZN4core3ptr87drop_in_place$LT$$LP$alloc..string..String$C$chrono..offset..fixed..FixedOffset$RP$$GT$17h2275d55c74151869E
00000000000487c0 g     F .text	000000000000004d              _ZN4core3ptr139drop_in_place$LT$core..result..Result$LT$chrono..offset..local..tz_info..timezone..TimeZone$C$chrono..offset..local..tz_info..Error$GT$$GT$17hc47d39c3aee28d16E
0000000000048a30 g     F .text	0000000000000099              _ZN4core3ptr71drop_in_place$LT$chrono..offset..local..tz_info..timezone..TimeZone$GT$17h016d5d52ab4291abE
0000000000048810 g     F .text	000000000000000d              _ZN4core3ptr144drop_in_place$LT$core..array..iter..iter_inner..PolymorphicIter$LT$$u5b$core..mem..maybe_uninit..MaybeUninit$LT$char$GT$$u3b$$u20$3$u5d$$GT$$GT$17h621b7ea23020a79eE
00000000000681e0 g     F .text	000000000000002a              _ZN100_$LT$core..array..iter..iter_inner..PolymorphicIter$LT$DATA$GT$$u20$as$u20$core..ops..drop..Drop$GT$4drop17h7f93fd06f45324d0E
0000000000048820 g     F .text	0000000000000034              _ZN4core3ptr148drop_in_place$LT$core..result..Result$LT$$RF$chrono..offset..local..tz_info..timezone..LocalTimeType$C$chrono..offset..local..tz_info..Error$GT$$GT$17h64cf973d9b646ed7E
0000000000048860 g     F .text	0000000000000035              _ZN4core3ptr179drop_in_place$LT$core..result..Result$LT$chrono..offset..LocalResult$LT$chrono..offset..local..tz_info..timezone..LocalTimeType$GT$$C$chrono..offset..local..tz_info..Error$GT$$GT$17h6cecb7d985cd21f6E
00000000000488a0 g     F .text	000000000000003e              _ZN4core3ptr39drop_in_place$LT$std..env..VarError$GT$17hc21a79eb8d1600a7E
00000000000744d0 g     F .text	000000000000000d              _ZN4core3ptr47drop_in_place$LT$std..ffi..os_str..OsString$GT$17hedadfea403a3a7d2E
00000000000488e0 g     F .text	000000000000000d              _ZN4core3ptr39drop_in_place$LT$std..path..PathBuf$GT$17h77b244908d873fd9E
0000000000048970 g     F .text	000000000000001e              _ZN4core3ptr49drop_in_place$LT$alloc..boxed..Box$LT$str$GT$$GT$17hd5e3d11b8eb9d0ddE
0000000000048940 g     F .text	000000000000000d              _ZN4core3ptr44drop_in_place$LT$core..char..ToLowercase$GT$17hcfa3ea9aade9c694E
0000000000048960 g     F .text	000000000000000d              _ZN4core3ptr48drop_in_place$LT$core..char..CaseMappingIter$GT$17h96baa06ab3db65b9E
000000000006a460 g     F .text	00000000000000c8              _ZN72_$LT$alloc..boxed..Box$LT$T$C$A$GT$$u20$as$u20$core..ops..drop..Drop$GT$4drop17hf25fe466eadec35eE
0000000000048990 g     F .text	000000000000000d              _ZN4core3ptr56drop_in_place$LT$chrono..offset..local..inner..Cache$GT$17hffc7bf9167b0443bE
000000000004f950 g     F .text	0000000000000006              _ZN82_$LT$core..array..iter..IntoIter$LT$T$C$_$GT$$u20$as$u20$core..ops..drop..Drop$GT$4drop17h547fdf7091c411e2E
0000000000048c80 g     F .text	0000000000000059              _ZN4core3ptr96drop_in_place$LT$alloc..vec..Vec$LT$chrono..offset..local..tz_info..timezone..Transition$GT$$GT$17h1f4e2647c012bcd2E
0000000000048d30 g     F .text	0000000000000059              _ZN4core3ptr99drop_in_place$LT$alloc..vec..Vec$LT$chrono..offset..local..tz_info..timezone..LocalTimeType$GT$$GT$17he29460bcfc770143E
0000000000048c20 g     F .text	0000000000000059              _ZN4core3ptr96drop_in_place$LT$alloc..vec..Vec$LT$chrono..offset..local..tz_info..timezone..LeapSecond$GT$$GT$17h79af53ca74797da5E
0000000000048b00 g     F .text	000000000000000c              _ZN4core3ptr82drop_in_place$LT$std..sys..thread_local..abort_on_dtor_unwind..DtorUnwindGuard$GT$17h0aa7ea04d2bfd8a8E
0000000000048b50 g     F .text	000000000000003b              _ZN4core3ptr86drop_in_place$LT$core..result..Result$LT$std..fs..File$C$std..io..error..Error$GT$$GT$17h773060904dae3b1eE
0000000000048ba0 g     F .text	0000000000000039              _ZN4core3ptr90drop_in_place$LT$core..result..Result$LT$std..fs..Metadata$C$std..io..error..Error$GT$$GT$17hc17048e85af3a1b0E
0000000000048be0 g     F .text	0000000000000039              _ZN4core3ptr91drop_in_place$LT$core..result..Result$LT$alloc..string..String$C$std..env..VarError$GT$$GT$17h85febf07e7279633E
000000000006b920 g     F .text	0000000000000018              _ZN70_$LT$alloc..vec..Vec$LT$T$C$A$GT$$u20$as$u20$core..ops..drop..Drop$GT$4drop17hd864d1b359e2ae72E
000000000006b900 g     F .text	0000000000000018              _ZN70_$LT$alloc..vec..Vec$LT$T$C$A$GT$$u20$as$u20$core..ops..drop..Drop$GT$4drop17h876c337dab6a59ecE
0000000000048ce0 g     F .text	000000000000004d              _ZN4core3ptr98drop_in_place$LT$core..result..Result$LT$alloc..vec..Vec$LT$u8$GT$$C$std..io..error..Error$GT$$GT$17h953b93b2126253d0E
0000000000074470 g     F .text	0000000000000059              _ZN4core3ptr46drop_in_place$LT$alloc..vec..Vec$LT$u8$GT$$GT$17h28279baa0e0754b8E
000000000006b8e0 g     F .text	0000000000000018              _ZN70_$LT$alloc..vec..Vec$LT$T$C$A$GT$$u20$as$u20$core..ops..drop..Drop$GT$4drop17h49279722f7ebe52dE
0000000000048d90 g     F .text	000000000000003e              _ZN4core3ptr99drop_in_place$LT$core..option..Option$LT$chrono..offset..local..tz_info..timezone..TimeZone$GT$$GT$17h925abc849733dbf1E
00000000000b8d90 g     F .text	00000000000000c4              _ZN4core3fmt9Formatter26debug_struct_field2_finish17h64a865faf2c41f70E
0000000000054b20 g     F .text	00000000000000a9              _ZN6chrono5naive4time9NaiveTime22overflowing_add_offset17h7bd0f6050f79e79eE
00000000000674e0 g     F .text	000000000000003f              _ZN4core6option15Option$LT$T$GT$9unwrap_or17h90373ff99cad8f62E
0000000000060d00 g     F .text	0000000000000010              _ZN6chrono8datetime18DateTime$LT$Tz$GT$25from_naive_utc_and_offset17h35da4d6b6b7f1edcE
00000000000bf500 g     F .text	0000000000000010              _ZN57_$LT$core..fmt..Formatter$u20$as$u20$core..fmt..Write$GT$10write_char17h44b6dc644adef020E
0000000000066170 g     F .text	000000000000001e              _ZN42_$LT$$RF$T$u20$as$u20$core..fmt..Debug$GT$3fmt17h1512b9fd735f42a0E
0000000000049160 g     F .text	0000000000000018              _ZN151_$LT$chrono..offset..local..tz_info..rule..TransitionRule$u20$as$u20$core..convert..From$LT$chrono..offset..local..tz_info..rule..AlternateTime$GT$$GT$4from17h19849487ce6f6077E
0000000000049180 g     F .text	0000000000000016              _ZN155_$LT$chrono..offset..local..tz_info..rule..TransitionRule$u20$as$u20$core..convert..From$LT$chrono..offset..local..tz_info..timezone..LocalTimeType$GT$$GT$4from17hb200e1a8fe6decc5E
00000000000491a0 g     F .text	0000000000000095              _ZN3std3sys12thread_local6native4lazy20Storage$LT$T$C$D$GT$11get_or_init17h8d585a02537a4630E
0000000000049240 g     F .text	00000000000002ac              _ZN3std3sys12thread_local6native4lazy20Storage$LT$T$C$D$GT$16get_or_init_slow17h69c540622f1b8375E
000000000004f930 g     F .text	0000000000000020              _ZN81_$LT$$LP$$RP$$u20$as$u20$std..sys..thread_local..native..lazy..DestroyedState$GT$13register_dtor17h40ccecbac41b8e86E
00000000000494f0 g     F .text	000000000000001b              _ZN3std3sys12thread_local6native4lazy7destroy17h7fab1843bac1cd57E
0000000000049510 g     F .text	000000000000005b              _ZN3std3sys12thread_local6native4lazy7destroy28_$u7b$$u7b$closure$u7d$$u7d$17h77237e98083e6f47E
0000000000066050 g     F .text	0000000000000049              _ZN3std3sys12thread_local20abort_on_dtor_unwind17h8660f629c5138f0dE
0000000000049640 g     F .text	000000000000002d              _ZN4core3str6traits66_$LT$impl$u20$core..ops..index..Index$LT$I$GT$$u20$for$u20$str$GT$5index17hdd61ac84196c8948E
0000000000049670 g     F .text	000000000000001b              _ZN4core5array8equality103_$LT$impl$u20$core..cmp..PartialEq$LT$$u5b$U$u3b$$u20$N$u5d$$GT$$u20$for$u20$$u5b$T$u3b$$u20$N$u5d$$GT$2eq17h644e13fbc910dbd8E
00000000000497a0 g     F .text	0000000000000020              _ZN69_$LT$T$u20$as$u20$core..array..equality..SpecArrayEq$LT$U$C$_$GT$$GT$7spec_eq17h7bd289cc37c34a61E
0000000000049690 g     F .text	0000000000000064              _ZN4core5array8equality92_$LT$impl$u20$core..cmp..PartialEq$LT$$u5b$U$u3b$$u20$N$u5d$$GT$$u20$for$u20$$u5b$T$u5d$$GT$2ne17hba763ea4525efb13E
00000000000497c0 g     F .text	0000000000000020              _ZN69_$LT$T$u20$as$u20$core..array..equality..SpecArrayEq$LT$U$C$_$GT$$GT$7spec_ne17he34bdcbaf1324c0cE
0000000000049700 g     F .text	0000000000000028              _ZN4core5array8equality96_$LT$impl$u20$core..cmp..PartialEq$LT$$u5b$U$u3b$$u20$N$u5d$$GT$$u20$for$u20$$RF$$u5b$T$u5d$$GT$2ne17h315e81b754dc7cbaE
0000000000049730 g     F .text	000000000000004e              _ZN4core5tuple64_$LT$impl$u20$core..cmp..PartialEq$u20$for$u20$$LP$U$C$T$RP$$GT$2eq17h4b3ec54d0d1730f7E
0000000000049780 g     F .text	0000000000000014              _ZN50_$LT$T$u20$as$u20$core..convert..Into$LT$U$GT$$GT$4into17hf370a98e4e8040d2E
00000000000497f0 g     F .text	000000000000003f              _ZN6chrono6offset5fixed11FixedOffset8east_opt17h2622172b5b4005c3E
0000000000061870 g     F .text	0000000000000071              _ZN79_$LT$core..result..Result$LT$T$C$E$GT$$u20$as$u20$core..ops..try_trait..Try$GT$6branch17h5d56af43edfbab13E
000000000005fa40 g     F .text	000000000000004a              _ZN153_$LT$core..result..Result$LT$T$C$F$GT$$u20$as$u20$core..ops..try_trait..FromResidual$LT$core..result..Result$LT$core..convert..Infallible$C$E$GT$$GT$$GT$13from_residual17h3c3c99466efefee8E
000000000004fd20 g     F .text	0000000000000068              _ZN4core3cmp3Ord3min17h69423b5952cf1f98E
0000000000062170 g     F .text	00000000000000a0              _ZN79_$LT$core..result..Result$LT$T$C$E$GT$$u20$as$u20$core..ops..try_trait..Try$GT$6branch17hc777fd805e87a45dE
000000000005fcc0 g     F .text	0000000000000056              _ZN153_$LT$core..result..Result$LT$T$C$F$GT$$u20$as$u20$core..ops..try_trait..FromResidual$LT$core..result..Result$LT$core..convert..Infallible$C$E$GT$$GT$$GT$13from_residual17h74ca3c41ef093423E
0000000000061e00 g     F .text	000000000000005f              _ZN79_$LT$core..result..Result$LT$T$C$E$GT$$u20$as$u20$core..ops..try_trait..Try$GT$6branch17h8e9cff5642f3db6eE
000000000005f810 g     F .text	000000000000004a              _ZN153_$LT$core..result..Result$LT$T$C$F$GT$$u20$as$u20$core..ops..try_trait..FromResidual$LT$core..result..Result$LT$core..convert..Infallible$C$E$GT$$GT$$GT$13from_residual17h162bf3e777060b13E
0000000000061e60 g     F .text	00000000000000ba              _ZN79_$LT$core..result..Result$LT$T$C$E$GT$$u20$as$u20$core..ops..try_trait..Try$GT$6branch17h8ed92fdddbc3d856E
000000000005f9c0 g     F .text	0000000000000056              _ZN153_$LT$core..result..Result$LT$T$C$F$GT$$u20$as$u20$core..ops..try_trait..FromResidual$LT$core..result..Result$LT$core..convert..Infallible$C$E$GT$$GT$$GT$13from_residual17h3098207ece40fad7E
00000000000620c0 g     F .text	00000000000000b0              _ZN79_$LT$core..result..Result$LT$T$C$E$GT$$u20$as$u20$core..ops..try_trait..Try$GT$6branch17hc34cac575475f7e3E
000000000005fc60 g     F .text	000000000000005a              _ZN153_$LT$core..result..Result$LT$T$C$F$GT$$u20$as$u20$core..ops..try_trait..FromResidual$LT$core..result..Result$LT$core..convert..Infallible$C$E$GT$$GT$$GT$13from_residual17h680277c3ce935f04E
0000000000062070 g     F .text	0000000000000041              _ZN79_$LT$core..result..Result$LT$T$C$E$GT$$u20$as$u20$core..ops..try_trait..Try$GT$6branch17hc190bca69728c97eE
000000000005fd80 g     F .text	000000000000004e              _ZN153_$LT$core..result..Result$LT$T$C$F$GT$$u20$as$u20$core..ops..try_trait..FromResidual$LT$core..result..Result$LT$core..convert..Infallible$C$E$GT$$GT$$GT$13from_residual17ha189030bb752122aE
00000000000617c0 g     F .text	00000000000000a8              _ZN79_$LT$core..result..Result$LT$T$C$E$GT$$u20$as$u20$core..ops..try_trait..Try$GT$6branch17h5c3d616ceefc8681E
0000000000062210 g     F .text	00000000000000ba              _ZN79_$LT$core..result..Result$LT$T$C$E$GT$$u20$as$u20$core..ops..try_trait..Try$GT$6branch17hce3c3ade9706cea8E
0000000000061660 g     F .text	00000000000000bb              _ZN79_$LT$core..result..Result$LT$T$C$E$GT$$u20$as$u20$core..ops..try_trait..Try$GT$6branch17h46f7359e401c4c0fE
000000000005ba00 g     F .text	0000000000000014              _ZN50_$LT$T$u20$as$u20$core..convert..Into$LT$U$GT$$GT$4into17he4f8d514989bc1c0E
00000000000622d0 g     F .text	00000000000000b6              _ZN79_$LT$core..result..Result$LT$T$C$E$GT$$u20$as$u20$core..ops..try_trait..Try$GT$6branch17hceaee7fa5d5de2efE
0000000000060170 g     F .text	000000000000004a              _ZN153_$LT$core..result..Result$LT$T$C$F$GT$$u20$as$u20$core..ops..try_trait..FromResidual$LT$core..result..Result$LT$core..convert..Infallible$C$E$GT$$GT$$GT$13from_residual17he81a1a7aaf3304a4E
000000000005f960 g     F .text	0000000000000056              _ZN153_$LT$core..result..Result$LT$T$C$F$GT$$u20$as$u20$core..ops..try_trait..FromResidual$LT$core..result..Result$LT$core..convert..Infallible$C$E$GT$$GT$$GT$13from_residual17h29eeee8714e334c0E
0000000000050af0 g     F .text	000000000000001b              _ZN4core3ops5range25RangeInclusive$LT$Idx$GT$8contains17hf4096b2eb63987efE
0000000000051150 g     F .text	0000000000000020              _ZN4core5slice29_$LT$impl$u20$$u5b$T$u5d$$GT$13binary_search17ha4c80b4b47f75408E
00000000000614d0 g     F .text	00000000000000a3              _ZN79_$LT$core..result..Result$LT$T$C$E$GT$$u20$as$u20$core..ops..try_trait..Try$GT$6branch17h3ae9a3ea76d3b0b5E
000000000005fbf0 g     F .text	000000000000004a              _ZN153_$LT$core..result..Result$LT$T$C$F$GT$$u20$as$u20$core..ops..try_trait..FromResidual$LT$core..result..Result$LT$core..convert..Infallible$C$E$GT$$GT$$GT$13from_residual17h664eb7925e2c8ba1E
0000000000061430 g     F .text	00000000000000a0              _ZN79_$LT$core..result..Result$LT$T$C$E$GT$$u20$as$u20$core..ops..try_trait..Try$GT$6branch17h2476949bf4cce7fdE
000000000005fb90 g     F .text	0000000000000056              _ZN153_$LT$core..result..Result$LT$T$C$F$GT$$u20$as$u20$core..ops..try_trait..FromResidual$LT$core..result..Result$LT$core..convert..Infallible$C$E$GT$$GT$$GT$13from_residual17h57535dc406363ad0E
0000000000061990 g     F .text	00000000000000a4              _ZN79_$LT$core..result..Result$LT$T$C$E$GT$$u20$as$u20$core..ops..try_trait..Try$GT$6branch17h68a5b2a468771e81E
0000000000050ab0 g     F .text	000000000000001b              _ZN4core3ops5range25RangeInclusive$LT$Idx$GT$8contains17h4794833af5fa2316E
000000000004f590 g     F .text	0000000000000370              _ZN71_$LT$chrono..offset..fixed..FixedOffset$u20$as$u20$core..fmt..Debug$GT$3fmt17h4a0bbb2f7f3e2863E
000000000004ff00 g     F .text	000000000000002b              _ZN4core3fmt2rt8Argument11new_display17h163dd44173220d10E
0000000000086dd0 g     F .text	00000000000000fa              _ZN3std3sys12thread_local11destructors10linux_like8register17h1010b5e789139aefE
000000000004f960 g     F .text	000000000000000b              _ZN100_$LT$core..ops..range..RangeInclusive$LT$T$GT$$u20$as$u20$core..ops..range..RangeBounds$LT$T$GT$$GT$11start_bound17h355c1a49290d3a33E
000000000004f970 g     F .text	000000000000000e              _ZN100_$LT$core..ops..range..RangeInclusive$LT$T$GT$$u20$as$u20$core..ops..range..RangeBounds$LT$T$GT$$GT$11start_bound17h40418701f8b1f62aE
000000000004f980 g     F .text	000000000000000b              _ZN100_$LT$core..ops..range..RangeInclusive$LT$T$GT$$u20$as$u20$core..ops..range..RangeBounds$LT$T$GT$$GT$11start_bound17h51b36a90679c69d5E
000000000004f990 g     F .text	000000000000000b              _ZN100_$LT$core..ops..range..RangeInclusive$LT$T$GT$$u20$as$u20$core..ops..range..RangeBounds$LT$T$GT$$GT$11start_bound17hcf17fa675656de47E
000000000004f9a0 g     F .text	000000000000004b              _ZN100_$LT$core..ops..range..RangeInclusive$LT$T$GT$$u20$as$u20$core..ops..range..RangeBounds$LT$T$GT$$GT$9end_bound17h07f482f943ae7db7E
000000000004f9f0 g     F .text	000000000000004a              _ZN100_$LT$core..ops..range..RangeInclusive$LT$T$GT$$u20$as$u20$core..ops..range..RangeBounds$LT$T$GT$$GT$9end_bound17h50336dbcf2328d3dE
000000000004fa40 g     F .text	000000000000004b              _ZN100_$LT$core..ops..range..RangeInclusive$LT$T$GT$$u20$as$u20$core..ops..range..RangeBounds$LT$T$GT$$GT$9end_bound17hd2fb0e92583e61f3E
000000000004fa90 g     F .text	000000000000004b              _ZN100_$LT$core..ops..range..RangeInclusive$LT$T$GT$$u20$as$u20$core..ops..range..RangeBounds$LT$T$GT$$GT$9end_bound17hee1c657b6be404a8E
000000000004fae0 g     F .text	000000000000000f              _ZN103_$LT$core..iter..sources..repeat..Repeat$LT$A$GT$$u20$as$u20$core..iter..traits..iterator..Iterator$GT$4next17h26d305621f658721E
000000000004faf0 g     F .text	00000000000000b5              _ZN106_$LT$core..ops..range..Range$LT$usize$GT$$u20$as$u20$core..slice..index..SliceIndex$LT$$u5b$T$u5d$$GT$$GT$3get17he41fef64d022aca5E
000000000004fbb0 g     F .text	000000000000002b              _ZN108_$LT$core..ops..range..RangeTo$LT$usize$GT$$u20$as$u20$core..slice..index..SliceIndex$LT$$u5b$T$u5d$$GT$$GT$3get17h321a6092524de2a0E
000000000004fbe0 g     F .text	0000000000000089              _ZN110_$LT$core..ops..range..RangeFrom$LT$usize$GT$$u20$as$u20$core..slice..index..SliceIndex$LT$$u5b$T$u5d$$GT$$GT$3get17h0d141f0f22e484e8E
000000000004fc70 g     F .text	000000000000008d              _ZN110_$LT$core..ops..range..RangeFrom$LT$usize$GT$$u20$as$u20$core..slice..index..SliceIndex$LT$$u5b$T$u5d$$GT$$GT$5index17h89fe5ca8ce5f501bE
000000000004fd00 g     F .text	000000000000001d              _ZN42_$LT$$RF$T$u20$as$u20$core..fmt..Debug$GT$3fmt17h38a2f914e7782322E
000000000004fd90 g     F .text	0000000000000021              _ZN4core3cmp5impls69_$LT$impl$u20$core..cmp..PartialEq$LT$$RF$B$GT$$u20$for$u20$$RF$A$GT$2ne17hd8cc6ccbe64e25ddE
000000000004fdc0 g     F .text	000000000000001c              _ZN4core3cmp9PartialEq2ne17h15a903440d36f93dE
00000000000b6710 g     F .text	0000000000000118              _ZN4core3fmt3num3imp52_$LT$impl$u20$core..fmt..Display$u20$for$u20$i32$GT$3fmt17h1d34aa19ad65fef9E
000000000004fed0 g     F .text	000000000000002b              _ZN4core3fmt2rt8Argument11new_display17h03467cbcda8999e1E
00000000000b0f77 g     F .text	0000000000000013              _ZN44_$LT$$RF$T$u20$as$u20$core..fmt..Display$GT$3fmt17h792c408db9af68dcE
00000000000b63d0 g     F .text	00000000000000b7              _ZN43_$LT$char$u20$as$u20$core..fmt..Display$GT$3fmt17h70f50921d2b95bdfE
00000000000b6960 g     F .text	000000000000010f              _ZN4core3fmt3num3imp52_$LT$impl$u20$core..fmt..Display$u20$for$u20$u32$GT$3fmt17h304ef928d833cc67E
000000000004ff60 g     F .text	000000000000002b              _ZN4core3fmt2rt8Argument11new_display17h46cdc5235acf9f36E
000000000004ff90 g     F .text	000000000000002b              _ZN4core3fmt2rt8Argument11new_display17h8209afe8c19b186dE
00000000000b6830 g     F .text	0000000000000124              _ZN4core3fmt3num3imp52_$LT$impl$u20$core..fmt..Display$u20$for$u20$i64$GT$3fmt17h3d3282282be62894E
00000000000b6670 g     F .text	0000000000000095              _ZN4core3fmt3num3imp51_$LT$impl$u20$core..fmt..Display$u20$for$u20$u8$GT$3fmt17h4106ba8e3ec0c355E
000000000004fff0 g     F .text	000000000000002b              _ZN4core3fmt2rt8Argument9new_debug17h8b24f829a9e37b68E
0000000000050020 g     F .text	000000000000020a              _ZN4core3ops5range11RangeBounds8contains17h5faabc9de7209666E
0000000000050230 g     F .text	000000000000020a              _ZN4core3ops5range11RangeBounds8contains17h9e7d234566482c3cE
0000000000050440 g     F .text	0000000000000202              _ZN4core3ops5range11RangeBounds8contains17haf0a7a8eb3a8bbccE
0000000000050650 g     F .text	0000000000000202              _ZN4core3ops5range11RangeBounds8contains17hdfc64da01501b570E
0000000000051bc0 g     F .text	000000000000000b              _ZN91_$LT$core..ops..range..Range$LT$T$GT$$u20$as$u20$core..ops..range..RangeBounds$LT$T$GT$$GT$11start_bound17hd863fd92355d9cd4E
0000000000051bd0 g     F .text	0000000000000012              _ZN91_$LT$core..ops..range..Range$LT$T$GT$$u20$as$u20$core..ops..range..RangeBounds$LT$T$GT$$GT$9end_bound17hc87ba8af4a92257cE
0000000000050860 g     F .text	0000000000000202              _ZN4core3ops5range11RangeBounds8contains17hfc15f62004aafb11E
0000000000050a70 g     F .text	000000000000001b              _ZN4core3ops5range16Range$LT$Idx$GT$8contains17h42b89825a21c6cabE
0000000000050ad0 g     F .text	000000000000001b              _ZN4core3ops5range25RangeInclusive$LT$Idx$GT$8contains17hbf3b53c8e51d5c5cE
0000000000050e20 g     F .text	0000000000000010              _ZN4core4iter5range116_$LT$impl$u20$core..iter..traits..double_ended..DoubleEndedIterator$u20$for$u20$core..ops..range..Range$LT$A$GT$$GT$9next_back17h8ba366964201cc9eE
0000000000051b40 g     F .text	0000000000000073              _ZN89_$LT$core..ops..range..Range$LT$T$GT$$u20$as$u20$core..iter..range..RangeIteratorImpl$GT$14spec_next_back17h41b205670f3023fbE
0000000000051d70 g     F .text	0000000000000073              _ZN4core4iter6traits12double_ended19DoubleEndedIterator5rfind5check28_$u7b$$u7b$closure$u7d$$u7d$17hd6848b6cdd0ca78cE
0000000000068130 g     F .text	0000000000000003              _ZN95_$LT$core..ops..control_flow..ControlFlow$LT$B$C$C$GT$$u20$as$u20$core..ops..try_trait..Try$GT$11from_output17haf86ac64463b9091E
0000000000068190 g     F .text	0000000000000043              _ZN95_$LT$core..ops..control_flow..ControlFlow$LT$B$C$C$GT$$u20$as$u20$core..ops..try_trait..Try$GT$6branch17hd8151d43a24d00daE
00000000000660f0 g     F .text	000000000000000e              _ZN185_$LT$core..ops..control_flow..ControlFlow$LT$B$C$C$GT$$u20$as$u20$core..ops..try_trait..FromResidual$LT$core..ops..control_flow..ControlFlow$LT$B$C$core..convert..Infallible$GT$$GT$$GT$13from_residual17hd21ecb2f7ab4dd8eE
0000000000050fd0 g     F .text	0000000000000008              _ZN4core4iter7sources6repeat6repeat17hc2cbb1380bac3609E
0000000000050fe0 g     F .text	0000000000000163              _ZN4core5slice29_$LT$impl$u20$$u5b$T$u5d$$GT$12chunks_exact17hf8a611e52ae9c13eE
0000000000051600 g     F .text	00000000000000f6              _ZN4core5slice29_$LT$impl$u20$$u5b$T$u5d$$GT$18split_at_unchecked17h886f0db185396e87E
0000000000051250 g     F .text	00000000000003ae              _ZN4core5slice29_$LT$impl$u20$$u5b$T$u5d$$GT$16binary_search_by17h90222e1e39f57a2fE
0000000000051170 g     F .text	0000000000000026              _ZN4core5slice29_$LT$impl$u20$$u5b$T$u5d$$GT$13binary_search28_$u7b$$u7b$closure$u7d$$u7d$17hdd783cc8a19542c6E
00000000000511a0 g     F .text	00000000000000a6              _ZN4core5slice29_$LT$impl$u20$$u5b$T$u5d$$GT$15copy_from_slice17h00c3a2b3006467e8E
00000000000be450 g     F .text	0000000000000013              _ZN4core5slice29_$LT$impl$u20$$u5b$T$u5d$$GT$15copy_from_slice17len_mismatch_fail17ha00caa1ffae83bbcE
00000000000517b0 g     F .text	000000000000005e              _ZN4core5slice29_$LT$impl$u20$$u5b$T$u5d$$GT$20binary_search_by_key28_$u7b$$u7b$closure$u7d$$u7d$17h04a38e8a84d5e871E
0000000000051810 g     F .text	000000000000005e              _ZN4core5slice29_$LT$impl$u20$$u5b$T$u5d$$GT$20binary_search_by_key28_$u7b$$u7b$closure$u7d$$u7d$17h6ced6d27edadd886E
0000000000051870 g     F .text	0000000000000031              _ZN4core5slice29_$LT$impl$u20$$u5b$T$u5d$$GT$3get17h7f7afb0b55038fc3E
00000000000518b0 g     F .text	0000000000000031              _ZN4core5slice29_$LT$impl$u20$$u5b$T$u5d$$GT$3get17hd8184310b3885b29E
00000000000522c0 g     F .text	000000000000004a              _ZN4core5slice4iter13Iter$LT$T$GT$3new17hc544b8f05da0e30eE
0000000000051950 g     F .text	0000000000000014              _ZN4core5slice29_$LT$impl$u20$$u5b$T$u5d$$GT$8is_empty17he9ef75f6e8ab52a6E
0000000000051a10 g     F .text	0000000000000095              _ZN4core9core_simd6vector17Simd$LT$T$C$_$GT$4load17h0e31b7f2c42e63ddE
0000000000051ae0 g     F .text	0000000000000008              _ZN63_$LT$I$u20$as$u20$core..iter..traits..collect..IntoIterator$GT$9into_iter17hda5a6659a86f8782E
00000000000535d0 g     F .text	000000000000001e              _ZN42_$LT$$RF$T$u20$as$u20$core..fmt..Debug$GT$3fmt17h53cb95cf68290297E
0000000000051bf0 g     F .text	0000000000000039              _ZN106_$LT$core..iter..adapters..chain..Chain$LT$A$C$B$GT$$u20$as$u20$core..iter..traits..iterator..Iterator$GT$4next17hd24de1b7bc8d9453E
00000000000521f0 g     F .text	00000000000000c8              _ZN4core4iter8adapters5chain17and_then_or_clear17h0faa14b05df14e93E
0000000000051c30 g     F .text	000000000000007b              _ZN106_$LT$core..iter..adapters..chain..Chain$LT$A$C$B$GT$$u20$as$u20$core..iter..traits..iterator..Iterator$GT$4next28_$u7b$$u7b$closure$u7d$$u7d$17h3d45c5ba11b1e8beE
0000000000051cb0 g     F .text	000000000000001e              _ZN42_$LT$$RF$T$u20$as$u20$core..fmt..Debug$GT$3fmt17hd1f2132c0c353347E
0000000000067310 g     F .text	00000000000000cb              _ZN4core6option15Option$LT$T$GT$7or_else17hc5648e03d1caac43E
0000000000051df0 g     F .text	000000000000008f              _ZN4core4iter6traits8iterator8Iterator3zip17h04ee30f2b0ba5822E
00000000000524c0 g     F .text	000000000000001a              _ZN63_$LT$I$u20$as$u20$core..iter..traits..collect..IntoIterator$GT$9into_iter17h4ff4842a05e0e17eE
0000000000053190 g     F .text	0000000000000041              _ZN111_$LT$core..iter..adapters..zip..Zip$LT$A$C$B$GT$$u20$as$u20$core..iter..adapters..zip..ZipImpl$LT$A$C$B$GT$$GT$3new17h500b17759589e892E
0000000000051e80 g     F .text	00000000000000d0              _ZN4core4iter6traits8iterator8Iterator3zip17hbc4c951d208edb3dE
0000000000052310 g     F .text	000000000000004a              _ZN4core5slice4iter87_$LT$impl$u20$core..iter..traits..collect..IntoIterator$u20$for$u20$$RF$$u5b$T$u5d$$GT$9into_iter17h330eb7fd29ad5ca8E
0000000000053070 g     F .text	000000000000011d              _ZN111_$LT$core..iter..adapters..zip..Zip$LT$A$C$B$GT$$u20$as$u20$core..iter..adapters..zip..ZipImpl$LT$A$C$B$GT$$GT$3new17h0db4667ca9d3aa33E
00000000000531e0 g     F .text	00000000000000d7              _ZN111_$LT$core..iter..adapters..zip..Zip$LT$A$C$B$GT$$u20$as$u20$core..iter..adapters..zip..ZipImpl$LT$A$C$B$GT$$GT$3new17hc994f716957319e3E
0000000000052030 g     F .text	0000000000000011              _ZN4core4iter6traits8iterator8Iterator6copied17h8e8da4f07b038b37E
0000000000052bc0 g     F .text	0000000000000151              _ZN94_$LT$core..slice..iter..Windows$LT$T$GT$$u20$as$u20$core..iter..traits..iterator..Iterator$GT$4next17hb61538080e02f2c7E
0000000000078990 g     F .text	0000000000000005              _ZN95_$LT$core..ops..control_flow..ControlFlow$LT$B$C$C$GT$$u20$as$u20$core..ops..try_trait..Try$GT$11from_output17hdfe38b1aa42fa8acE
00000000000789a0 g     F .text	000000000000002d              _ZN95_$LT$core..ops..control_flow..ControlFlow$LT$B$C$C$GT$$u20$as$u20$core..ops..try_trait..Try$GT$6branch17hd1f452650fd5b34bE
0000000000078000 g     F .text	0000000000000005              _ZN185_$LT$core..ops..control_flow..ControlFlow$LT$B$C$C$GT$$u20$as$u20$core..ops..try_trait..FromResidual$LT$core..ops..control_flow..ControlFlow$LT$B$C$core..convert..Infallible$GT$$GT$$GT$13from_residual17hefebfb4306866331E
0000000000052190 g     F .text	0000000000000021              _ZN4core4iter8adapters3zip27TrustedRandomAccessNoCoerce4size17h992b3e85159db7edE
0000000000052f20 g     F .text	000000000000006d              _ZN98_$LT$core..slice..iter..ChunksExact$LT$T$GT$$u20$as$u20$core..iter..traits..iterator..Iterator$GT$9size_hint17he0ad78e179cc2ff8E
00000000000521c0 g     F .text	0000000000000021              _ZN4core4iter8adapters3zip27TrustedRandomAccessNoCoerce4size17hcff1409fe3c443eeE
0000000000078930 g     F .text	000000000000005c              _ZN91_$LT$core..slice..iter..Iter$LT$T$GT$$u20$as$u20$core..iter..traits..iterator..Iterator$GT$9size_hint17h8796500eae73002cE
00000000000524a0 g     F .text	0000000000000012              _ZN50_$LT$T$u20$as$u20$core..convert..Into$LT$U$GT$$GT$4into17h518d4ac703741f13E
00000000000524e0 g     F .text	0000000000000018              _ZN63_$LT$I$u20$as$u20$core..iter..traits..collect..IntoIterator$GT$9into_iter17h9afe7626270fe081E
0000000000052500 g     F .text	0000000000000011              _ZN91_$LT$core..slice..iter..Iter$LT$T$GT$$u20$as$u20$core..iter..traits..iterator..Iterator$GT$24__iterator_get_unchecked17h51a1b508327f1889E
0000000000052520 g     F .text	00000000000000a0              _ZN91_$LT$core..slice..iter..Iter$LT$T$GT$$u20$as$u20$core..iter..traits..iterator..Iterator$GT$4next17hcc30ed4a9d5a6cc9E
00000000000525c0 g     F .text	0000000000000178              _ZN91_$LT$core..slice..iter..Iter$LT$T$GT$$u20$as$u20$core..iter..traits..iterator..Iterator$GT$8position17h48dd2051f03921feE
0000000000078890 g     F .text	00000000000000a0              _ZN91_$LT$core..slice..iter..Iter$LT$T$GT$$u20$as$u20$core..iter..traits..iterator..Iterator$GT$4next17h73ddf8f787e47287E
0000000000052740 g     F .text	0000000000000173              _ZN91_$LT$core..slice..iter..Iter$LT$T$GT$$u20$as$u20$core..iter..traits..iterator..Iterator$GT$8position17h8478df616fb966edE
00000000000528c0 g     F .text	0000000000000173              _ZN91_$LT$core..slice..iter..Iter$LT$T$GT$$u20$as$u20$core..iter..traits..iterator..Iterator$GT$8position17h87d20695397155c2E
0000000000052a40 g     F .text	0000000000000178              _ZN91_$LT$core..slice..iter..Iter$LT$T$GT$$u20$as$u20$core..iter..traits..iterator..Iterator$GT$8position17hd8dad871f68ccdb7E
0000000000052d40 g     F .text	0000000000000076              _ZN98_$LT$core..slice..iter..ChunksExact$LT$T$GT$$u20$as$u20$core..iter..traits..iterator..Iterator$GT$24__iterator_get_unchecked17ha77251b0a90a6c19E
0000000000052dc0 g     F .text	0000000000000155              _ZN98_$LT$core..slice..iter..ChunksExact$LT$T$GT$$u20$as$u20$core..iter..traits..iterator..Iterator$GT$4next17hbef9aaf488b5dcdcE
0000000000052f90 g     F .text	0000000000000021              _ZN102_$LT$core..iter..adapters..zip..Zip$LT$A$C$B$GT$$u20$as$u20$core..iter..traits..iterator..Iterator$GT$4next17h13f675f51f6393c5E
0000000000053470 g     F .text	00000000000000e2              _ZN111_$LT$core..iter..adapters..zip..Zip$LT$A$C$B$GT$$u20$as$u20$core..iter..adapters..zip..ZipImpl$LT$A$C$B$GT$$GT$4next17hccb52c5daaccdff2E
0000000000052fc0 g     F .text	0000000000000047              _ZN102_$LT$core..iter..adapters..zip..Zip$LT$A$C$B$GT$$u20$as$u20$core..iter..traits..iterator..Iterator$GT$4next17hac67f2b35c51928eE
00000000000532c0 g     F .text	00000000000000fc              _ZN111_$LT$core..iter..adapters..zip..Zip$LT$A$C$B$GT$$u20$as$u20$core..iter..adapters..zip..ZipImpl$LT$A$C$B$GT$$GT$4next17h39eb74b08c64b143E
0000000000053560 g     F .text	0000000000000070              _ZN3std3env3var17he86ef23abae35b31E
0000000000053840 g     F .text	0000000000000016              _ZN55_$LT$$RF$T$u20$as$u20$core..convert..AsRef$LT$U$GT$$GT$6as_ref17h48da51d85c49052eE
0000000000086ba0 g     F .text	000000000000009f              _ZN3std3env4_var17hedc9fcdb7326c51fE
00000000000bfd40 g     F .text	00000000000000c4              _ZN57_$LT$core..time..Duration$u20$as$u20$core..fmt..Debug$GT$3fmt17h6dc90c1fafc37461E
00000000000535f0 g     F .text	0000000000000040              _ZN4core4iter6traits8iterator8Iterator4take17haaffc5cc5356a871E
0000000000053630 g     F .text	000000000000008b              _ZN4core4iter6traits8iterator8Iterator5chain17hec7c4f01993b944cE
00000000000536c0 g     F .text	0000000000000146              _ZN4core4iter6traits8iterator8Iterator8try_fold17hc83e0a666c95cb43E
000000000006a610 g     F .text	00000000000000a9              _ZN100_$LT$core..iter..adapters..take..Take$LT$I$GT$$u20$as$u20$core..iter..traits..iterator..Iterator$GT$8try_fold5check28_$u7b$$u7b$closure$u7d$$u7d$17hf6dbd4e232d7ae8dE
0000000000068140 g     F .text	0000000000000003              _ZN95_$LT$core..ops..control_flow..ControlFlow$LT$B$C$C$GT$$u20$as$u20$core..ops..try_trait..Try$GT$11from_output17hddba06fbe15a98aaE
0000000000068150 g     F .text	000000000000003e              _ZN95_$LT$core..ops..control_flow..ControlFlow$LT$B$C$C$GT$$u20$as$u20$core..ops..try_trait..Try$GT$6branch17h890848e9fc32a327E
00000000000660e0 g     F .text	000000000000000f              _ZN185_$LT$core..ops..control_flow..ControlFlow$LT$B$C$C$GT$$u20$as$u20$core..ops..try_trait..FromResidual$LT$core..ops..control_flow..ControlFlow$LT$B$C$core..convert..Infallible$GT$$GT$$GT$13from_residual17h7d4831d0bd049e30E
0000000000053830 g     F .text	000000000000000c              _ZN50_$LT$T$u20$as$u20$core..convert..Into$LT$U$GT$$GT$4into17h2c6bb17f11f21ed4E
00000000000b5632 g     F .text	0000000000000013              _ZN5alloc5alloc18handle_alloc_error17h8f86e24af4223f3dE
0000000000053b80 g     F .text	0000000000000018              _ZN63_$LT$I$u20$as$u20$core..iter..traits..collect..IntoIterator$GT$9into_iter17hf4bacf79831f6037E
0000000000054180 g     F .text	0000000000000033              _ZN6chrono5naive4date9NaiveDate11from_yo_opt17hebf7af95c46481adE
0000000000053f10 g     F .text	0000000000000195              _ZN6chrono5naive4date11cycle_to_yo17hf10880206aba7b02E
00000000000544b0 g     F .text	00000000000000d3              _ZN6chrono5naive4date9NaiveDate22from_ordinal_and_flags17h10e100f170ddfe48E
0000000000054890 g     F .text	0000000000000080              _ZN6chrono5naive4date9NaiveDate8from_mdf17hee9cf58993a83f12E
0000000000054240 g     F .text	0000000000000261              _ZN6chrono5naive4date9NaiveDate16num_days_from_ce17hee060adc8b0960c0E
0000000000054590 g     F .text	00000000000000ff              _ZN6chrono5naive4date9NaiveDate25from_num_days_from_ce_opt17h583d5cf080ed62c1E
000000000005aef0 g     F .text	0000000000000040              _ZN4core3num7nonzero16NonZero$LT$T$GT$13new_unchecked17h6d4a4b9f1670ea3aE
00000000000bf070 g     F .text	0000000000000037              _ZN4core9panicking11panic_const24panic_const_shr_overflow17h5954893169026747E
00000000000b5df0 g     F .text	0000000000000396              _ZN40_$LT$str$u20$as$u20$core..fmt..Debug$GT$3fmt17h310aa922679ce93dE
0000000000055310 g     F .text	000000000000006b              _ZN3std6thread5local17LocalKey$LT$T$GT$4with17hf974296be50c8e75E
0000000000055380 g     F .text	0000000000000119              _ZN3std6thread5local17LocalKey$LT$T$GT$8try_with17h3c79369a7f65303dE
000000000008c100 g     F .text	0000000000000053              _ZN3std6thread5local18panic_access_error17h958a6a48f343130fE
00000000000554a0 g     F .text	000000000000001e              _ZN42_$LT$$RF$T$u20$as$u20$core..fmt..Debug$GT$3fmt17h2d05f0cbfed8b081E
00000000000b0f37 g     F .text	0000000000000013              _ZN42_$LT$$RF$T$u20$as$u20$core..fmt..Debug$GT$3fmt17h710ca7a4ffc6cc7bE
00000000000554c0 g     F .text	0000000000000041              _ZN49_$LT$F$u20$as$u20$core..str..pattern..Pattern$GT$13into_searcher17h854945ef196c5854E
00000000000555e0 g     F .text	000000000000003b              _ZN4core3fmt2rt38_$LT$impl$u20$core..fmt..Arguments$GT$6new_v117h839a247bdc22ffddE
0000000000055ff0 g     F .text	0000000000000064              _ZN4core5array98_$LT$impl$u20$core..iter..traits..collect..IntoIterator$u20$for$u20$$RF$$u5b$T$u3b$$u20$N$u5d$$GT$9into_iter17hfe991e2047b74746E
0000000000056150 g     F .text	000000000000003a              _ZN5alloc3fmt6format28_$u7b$$u7b$closure$u7d$$u7d$17h08bb93f240d6af5fE
00000000000b5450 g     F .text	00000000000001e2              _ZN5alloc3fmt6format12format_inner17hce37e7516f243f46E
000000000006e780 g     F .text	0000000000000159              _ZN87_$LT$T$u20$as$u20$alloc..slice..$LT$impl$u20$$u5b$T$u5d$$GT$..to_vec_in..ConvertVec$GT$6to_vec17h94fb9a6cc72dedabE
0000000000060bd0 g     F .text	00000000000000c7              _ZN6chrono6offset3utc3Utc3now17hc27dc4c1bc0519a7E
0000000000060ca0 g     F .text	0000000000000033              _ZN6chrono8datetime18DateTime$LT$Tz$GT$13with_timezone17h87b502e67dd369bfE
00000000000607b0 g     F .text	00000000000000af              _ZN4core6result19Result$LT$T$C$E$GT$2ok17he559ea510cab55f6E
0000000000067220 g     F .text	00000000000000e5              _ZN4core6option15Option$LT$T$GT$7or_else17h77af36c3c2b84b02E
0000000000066fa0 g     F .text	0000000000000076              _ZN4core6option15Option$LT$T$GT$14unwrap_or_else17h3cbbf4fbcf77bc87E
00000000000606f0 g     F .text	00000000000000bf              _ZN4core6result19Result$LT$T$C$E$GT$2ok17hc3db6f08eff1a74aE
00000000000680a0 g     F .text	0000000000000087              _ZN75_$LT$core..option..Option$LT$T$GT$$u20$as$u20$core..ops..try_trait..Try$GT$6branch17h8c7a30d6cdf03501E
00000000000660a0 g     F .text	0000000000000011              _ZN145_$LT$core..option..Option$LT$T$GT$$u20$as$u20$core..ops..try_trait..FromResidual$LT$core..option..Option$LT$core..convert..Infallible$GT$$GT$$GT$13from_residual17h6a5d6c56661dd967E
0000000000068610 g     F .text	0000000000000087              _ZN3std2fs4read17hbfceab557a1f6b4fE
0000000000060590 g     F .text	00000000000000bf              _ZN4core6result19Result$LT$T$C$E$GT$2ok17h12ed3ca1f2c6e438E
0000000000068010 g     F .text	0000000000000087              _ZN75_$LT$core..option..Option$LT$T$GT$$u20$as$u20$core..ops..try_trait..Try$GT$6branch17h687e53fa68a9a460E
000000000006b950 g     F .text	0000000000000010              _ZN72_$LT$alloc..vec..Vec$LT$T$C$A$GT$$u20$as$u20$core..ops..deref..Deref$GT$5deref17h588cf655f3b68799E
000000000008be90 g     F .text	0000000000000007              _ZN3std4time10SystemTime3now17h41032f879594e847E
000000000008be50 g     F .text	0000000000000037              _ZN3std4time10SystemTime14duration_since17h85cfc48171ee6db2E
0000000000060650 g     F .text	0000000000000092              _ZN4core6result19Result$LT$T$C$E$GT$2ok17h581ebf48430fe1b5E
00000000000673e0 g     F .text	0000000000000079              _ZN4core6option15Option$LT$T$GT$8as_deref17h04cdd191b381fe5bE
0000000000074600 g     F .text	000000000000003e              _ZN4core3ptr70drop_in_place$LT$core..option..Option$LT$alloc..string..String$GT$$GT$17h1db3d560d9d031a0E
0000000000060500 g     F .text	0000000000000020              _ZN4core3cmp5impls69_$LT$impl$u20$core..cmp..PartialEq$LT$$RF$B$GT$$u20$for$u20$$RF$A$GT$2ne17hb687c55e28bfc3b5E
0000000000060860 g     F .text	00000000000000b6              _ZN4core6result19Result$LT$T$C$E$GT$6expect17hbe935ec265ad4484E
0000000000060920 g     F .text	00000000000000e1              _ZN4core6result19Result$LT$T$C$E$GT$6expect17hc77dfceca006a86aE
000000000005bc00 g     F .text	00000000000002fc              _ZN6chrono6offset20LocalResult$LT$T$GT$8and_then17h30154e409ba98c2bE
0000000000068300 g     F .text	00000000000000ff              _ZN3std2fs16symlink_metadata17h48aab41d06e65ae1E
00000000000841e0 g     F .text	000000000000002b              _ZN3std2fs8Metadata8modified17hb29d135cfbbe75c1E
0000000000060520 g     F .text	0000000000000068              _ZN4core6result19Result$LT$T$C$E$GT$14unwrap_or_else17h14d80dc5971c03cfE
0000000000067020 g     F .text	000000000000018c              _ZN4core6option15Option$LT$T$GT$18get_or_insert_with17h5366473df975fcc8E
0000000000000000       F *UND*	0000000000000000              __tls_get_addr
000000000005fa90 g     F .text	0000000000000056              _ZN153_$LT$core..result..Result$LT$T$C$F$GT$$u20$as$u20$core..ops..try_trait..FromResidual$LT$core..result..Result$LT$core..convert..Infallible$C$E$GT$$GT$$GT$13from_residual17h3fe6496ef794c2ffE
0000000000061bf0 g     F .text	00000000000000ca              _ZN79_$LT$core..result..Result$LT$T$C$E$GT$$u20$as$u20$core..ops..try_trait..Try$GT$6branch17h7a5b314c65df2bbbE
000000000005fd20 g     F .text	000000000000005d              _ZN153_$LT$core..result..Result$LT$T$C$F$GT$$u20$as$u20$core..ops..try_trait..FromResidual$LT$core..result..Result$LT$core..convert..Infallible$C$E$GT$$GT$$GT$13from_residual17h9388fa2ecebca64cE
000000000005f860 g     F .text	0000000000000051              _ZN153_$LT$core..result..Result$LT$T$C$F$GT$$u20$as$u20$core..ops..try_trait..FromResidual$LT$core..result..Result$LT$core..convert..Infallible$C$E$GT$$GT$$GT$13from_residual17h1c5dfc77bac32447E
0000000000061a40 g     F .text	00000000000000ef              _ZN79_$LT$core..result..Result$LT$T$C$E$GT$$u20$as$u20$core..ops..try_trait..Try$GT$6branch17h6e1b2b79c600323fE
0000000000060050 g     F .text	0000000000000064              _ZN153_$LT$core..result..Result$LT$T$C$F$GT$$u20$as$u20$core..ops..try_trait..FromResidual$LT$core..result..Result$LT$core..convert..Infallible$C$E$GT$$GT$$GT$13from_residual17hdaf46dbac318f865E
000000000006af80 g     F .text	0000000000000052              _ZN5alloc3vec12Vec$LT$T$GT$13with_capacity17h96f6ea4282aa1f90E
000000000006aec0 g     F .text	0000000000000052              _ZN5alloc3vec12Vec$LT$T$GT$13with_capacity17h4b6ba60a443cc82aE
000000000006af20 g     F .text	0000000000000052              _ZN5alloc3vec12Vec$LT$T$GT$13with_capacity17h5842556af1c7f994E
000000000006ae60 g     F .text	000000000000002e              _ZN4core4iter6traits8iterator8Iterator3any17ha04fabca5c4e1a75E
00000000000bdef0 g     F .text	00000000000001f7              _ZN4core3str8converts9from_utf817h61448895180b8340E
0000000000061720 g     F .text	0000000000000094              _ZN79_$LT$core..result..Result$LT$T$C$E$GT$$u20$as$u20$core..ops..try_trait..Try$GT$6branch17h49bbefa2ae06370fE
00000000000601c0 g     F .text	0000000000000064              _ZN153_$LT$core..result..Result$LT$T$C$F$GT$$u20$as$u20$core..ops..try_trait..FromResidual$LT$core..result..Result$LT$core..convert..Infallible$C$E$GT$$GT$$GT$13from_residual17he8a6d212b0fe3259E
000000000006d200 g     F .text	000000000000002c              _ZN4core3str21_$LT$impl$u20$str$GT$11starts_with17h842eed93af1185a7E
000000000006adc0 g     F .text	000000000000002c              _ZN4core3str21_$LT$impl$u20$str$GT$9ends_with17h82665528aff581a2E
000000000006a9c0 g     F .text	000000000000017b              _ZN4core3str21_$LT$impl$u20$str$GT$12trim_matches17ha414d06f1e540dc8E
000000000006ad70 g     F .text	000000000000002c              _ZN4core3str21_$LT$impl$u20$str$GT$8contains17hb5505bc5d366a81dE
0000000000061b30 g     F .text	00000000000000bb              _ZN79_$LT$core..result..Result$LT$T$C$E$GT$$u20$as$u20$core..ops..try_trait..Try$GT$6branch17h712a0bdccb54f59dE
0000000000061580 g     F .text	00000000000000a3              _ZN79_$LT$core..result..Result$LT$T$C$E$GT$$u20$as$u20$core..ops..try_trait..Try$GT$6branch17h3cd2a13f85668601E
000000000006b1d0 g     F .text	000000000000001c              _ZN5alloc3vec16Vec$LT$T$C$A$GT$4push17hefe37f802fbc13d0E
000000000006b1a0 g     F .text	000000000000000d              _ZN5alloc3vec16Vec$LT$T$C$A$GT$4push17h286dda2b1c9909cdE
000000000006b1b0 g     F .text	000000000000001d              _ZN5alloc3vec16Vec$LT$T$C$A$GT$4push17h97928aefead4d716E
000000000005ff90 g     F .text	000000000000004a              _ZN153_$LT$core..result..Result$LT$T$C$F$GT$$u20$as$u20$core..ops..try_trait..FromResidual$LT$core..result..Result$LT$core..convert..Infallible$C$E$GT$$GT$$GT$13from_residual17hb9802c68fb260c7fE
00000000000ab52a g     F .text	0000000000000025              _ZN4core5slice29_$LT$impl$u20$$u5b$T$u5d$$GT$11starts_with17h12c131a515e473efE
000000000005fc40 g     F .text	000000000000001a              _ZN153_$LT$core..result..Result$LT$T$C$F$GT$$u20$as$u20$core..ops..try_trait..FromResidual$LT$core..result..Result$LT$core..convert..Infallible$C$E$GT$$GT$$GT$13from_residual17h6715236dcba90cb2E
0000000000060120 g     F .text	000000000000004a              _ZN153_$LT$core..result..Result$LT$T$C$F$GT$$u20$as$u20$core..ops..try_trait..FromResidual$LT$core..result..Result$LT$core..convert..Infallible$C$E$GT$$GT$$GT$13from_residual17he80104cd8011258fE
0000000000060230 g     F .text	0000000000000056              _ZN153_$LT$core..result..Result$LT$T$C$F$GT$$u20$as$u20$core..ops..try_trait..FromResidual$LT$core..result..Result$LT$core..convert..Infallible$C$E$GT$$GT$$GT$13from_residual17hea16839704235f4eE
000000000006ad50 g     F .text	0000000000000018              _ZN4core3str21_$LT$impl$u20$str$GT$5parse17h954f09e437d23dfdE
00000000000623e0 g     F .text	000000000000004f              _ZN79_$LT$core..result..Result$LT$T$C$E$GT$$u20$as$u20$core..ops..try_trait..Try$GT$6branch17he0985b2914083245E
000000000005faf0 g     F .text	0000000000000050              _ZN153_$LT$core..result..Result$LT$T$C$F$GT$$u20$as$u20$core..ops..try_trait..FromResidual$LT$core..result..Result$LT$core..convert..Infallible$C$E$GT$$GT$$GT$13from_residual17h45c8eec221429abeE
000000000005fee0 g     F .text	000000000000004a              _ZN153_$LT$core..result..Result$LT$T$C$F$GT$$u20$as$u20$core..ops..try_trait..FromResidual$LT$core..result..Result$LT$core..convert..Infallible$C$E$GT$$GT$$GT$13from_residual17haaba881fa61798aeE
000000000005fe30 g     F .text	0000000000000056              _ZN153_$LT$core..result..Result$LT$T$C$F$GT$$u20$as$u20$core..ops..try_trait..FromResidual$LT$core..result..Result$LT$core..convert..Infallible$C$E$GT$$GT$$GT$13from_residual17ha703a866ba6853a9E
000000000006ad20 g     F .text	000000000000002c              _ZN4core3str21_$LT$impl$u20$str$GT$5parse17h577e6368a78b00faE
00000000000613e0 g     F .text	000000000000004a              _ZN79_$LT$core..result..Result$LT$T$C$E$GT$$u20$as$u20$core..ops..try_trait..Try$GT$6branch17h12af19379ebad0c0E
000000000005fb40 g     F .text	0000000000000050              _ZN153_$LT$core..result..Result$LT$T$C$F$GT$$u20$as$u20$core..ops..try_trait..FromResidual$LT$core..result..Result$LT$core..convert..Infallible$C$E$GT$$GT$$GT$13from_residual17h4c6affd1b1302672E
000000000005fe90 g     F .text	000000000000004a              _ZN153_$LT$core..result..Result$LT$T$C$F$GT$$u20$as$u20$core..ops..try_trait..FromResidual$LT$core..result..Result$LT$core..convert..Infallible$C$E$GT$$GT$$GT$13from_residual17ha7d7624ec138ac94E
000000000005fdd0 g     F .text	0000000000000056              _ZN153_$LT$core..result..Result$LT$T$C$F$GT$$u20$as$u20$core..ops..try_trait..FromResidual$LT$core..result..Result$LT$core..convert..Infallible$C$E$GT$$GT$$GT$13from_residual17ha1fa11210c33cb6dE
000000000006acf0 g     F .text	0000000000000028              _ZN4core3str21_$LT$impl$u20$str$GT$5parse17h4bf28b7304ae9c06E
0000000000062390 g     F .text	0000000000000049              _ZN79_$LT$core..result..Result$LT$T$C$E$GT$$u20$as$u20$core..ops..try_trait..Try$GT$6branch17hcfeb14570da46375E
0000000000060290 g     F .text	0000000000000050              _ZN153_$LT$core..result..Result$LT$T$C$F$GT$$u20$as$u20$core..ops..try_trait..FromResidual$LT$core..result..Result$LT$core..convert..Infallible$C$E$GT$$GT$$GT$13from_residual17hee47e9366a33be11E
000000000005fa20 g     F .text	0000000000000013              _ZN153_$LT$core..result..Result$LT$T$C$F$GT$$u20$as$u20$core..ops..try_trait..FromResidual$LT$core..result..Result$LT$core..convert..Infallible$C$E$GT$$GT$$GT$13from_residual17h3b8499f090aef946E
00000000000604d0 g     F .text	000000000000002f              _ZN4core3cmp5impls69_$LT$impl$u20$core..cmp..PartialEq$LT$$RF$B$GT$$u20$for$u20$$RF$A$GT$2eq17hc44b9e8c5c1eeef3E
000000000005f910 g     F .text	000000000000004e              _ZN153_$LT$core..result..Result$LT$T$C$F$GT$$u20$as$u20$core..ops..try_trait..FromResidual$LT$core..result..Result$LT$core..convert..Infallible$C$E$GT$$GT$$GT$13from_residual17h21c21a4f74e58c25E
0000000000061d60 g     F .text	00000000000000a0              _ZN79_$LT$core..result..Result$LT$T$C$E$GT$$u20$as$u20$core..ops..try_trait..Try$GT$6branch17h895b35a58c19c714E
00000000000600c0 g     F .text	000000000000005a              _ZN153_$LT$core..result..Result$LT$T$C$F$GT$$u20$as$u20$core..ops..try_trait..FromResidual$LT$core..result..Result$LT$core..convert..Infallible$C$E$GT$$GT$$GT$13from_residual17he6ba686d32be729dE
000000000005ac40 g     F .text	0000000000000063              _ZN6chrono6offset8TimeZone17from_utc_datetime17hcf48dcbca54ae1dfE
000000000005acb0 g     F .text	000000000000002f              _ZN73_$LT$chrono..offset..local..Local$u20$as$u20$chrono..offset..TimeZone$GT$24offset_from_utc_datetime17h8999d891b9309211E
0000000000060ce0 g     F .text	0000000000000017              _ZN6chrono8datetime18DateTime$LT$Tz$GT$25from_naive_utc_and_offset17h0364ab2421a67f88E
000000000005bac0 g     F .text	0000000000000137              _ZN6chrono6offset20LocalResult$LT$T$GT$6unwrap17h09cfbe747b7857a3E
000000000005aea0 g     F .text	0000000000000041              _ZN49_$LT$F$u20$as$u20$core..str..pattern..Pattern$GT$13into_searcher17h7831094df0a51e4bE
000000000005afd0 g     F .text	00000000000003b7              _ZN4core5slice29_$LT$impl$u20$$u5b$T$u5d$$GT$16binary_search_by17h500a6943844601e0E
000000000005b390 g     F .text	00000000000003b7              _ZN4core5slice29_$LT$impl$u20$$u5b$T$u5d$$GT$16binary_search_by17hd74c63c65e679f57E
000000000005b750 g     F .text	0000000000000059              _ZN4core5slice29_$LT$impl$u20$$u5b$T$u5d$$GT$20binary_search_by_key17h23cccda10437b6f3E
000000000005b7b0 g     F .text	0000000000000059              _ZN4core5slice29_$LT$impl$u20$$u5b$T$u5d$$GT$20binary_search_by_key17h8eb9c42cd769be83E
000000000005b810 g     F .text	000000000000004a              _ZN4core5slice29_$LT$impl$u20$$u5b$T$u5d$$GT$4last17hb055076d070c4d20E
000000000005b860 g     F .text	0000000000000014              _ZN4core5slice29_$LT$impl$u20$$u5b$T$u5d$$GT$8is_empty17h5284e0f9a01c3d5fE
000000000005b880 g     F .text	0000000000000014              _ZN4core5slice29_$LT$impl$u20$$u5b$T$u5d$$GT$8is_empty17h908919a10d551208E
000000000005b8a0 g     F .text	000000000000004e              _ZN4core5slice4iter87_$LT$impl$u20$core..iter..traits..collect..IntoIterator$u20$for$u20$$RF$$u5b$T$u5d$$GT$9into_iter17h006947bd045acd79E
000000000005ba40 g     F .text	0000000000000043              _ZN5alloc5slice29_$LT$impl$u20$$u5b$T$u5d$$GT$8into_vec17h4218b281d9e0dfb0E
000000000006b040 g     F .text	00000000000000a4              _ZN5alloc3vec16Vec$LT$T$C$A$GT$17from_raw_parts_in17hf6e790a6b8395f00E
0000000000075230 g     F .text	0000000000000016              _ZN55_$LT$$RF$T$u20$as$u20$core..convert..AsRef$LT$U$GT$$GT$6as_ref17he2c0eda3406e2045E
000000000008b080 g     F .text	000000000000000f              _ZN3std4path4Path11is_absolute17hf19889a9c7aed189E
0000000000068400 g     F .text	00000000000000bf              _ZN3std2fs4File4open17h151488f1f0b017c3E
0000000000077cf0 g     F .text	00000000000000a0              _ZN91_$LT$core..slice..iter..Iter$LT$T$GT$$u20$as$u20$core..iter..traits..iterator..Iterator$GT$4next17h4138611d3fcee956E
0000000000065cb0 g     F .text	00000000000000cc              _ZN71_$LT$std..path..PathBuf$u20$as$u20$core..convert..From$LT$$RF$T$GT$$GT$4from17he4154c0429f4cd66E
0000000000062530 g     F .text	000000000000008e              _ZN3std4path4Path4join17he4f7216e361041c7E
00000000000684c0 g     F .text	00000000000000dc              _ZN3std2fs4File4open17h79fcc41be8a52359E
0000000000075550 g     F .text	0000000000000058              _ZN79_$LT$core..result..Result$LT$T$C$E$GT$$u20$as$u20$core..ops..try_trait..Try$GT$6branch17hbb9731e64eca82bcE
000000000005f8c0 g     F .text	000000000000004a              _ZN153_$LT$core..result..Result$LT$T$C$F$GT$$u20$as$u20$core..ops..try_trait..FromResidual$LT$core..result..Result$LT$core..convert..Infallible$C$E$GT$$GT$$GT$13from_residual17h20408bb14334d816E
0000000000061f20 g     F .text	00000000000000a8              _ZN79_$LT$core..result..Result$LT$T$C$E$GT$$u20$as$u20$core..ops..try_trait..Try$GT$6branch17h928e2bf22f75dbdeE
000000000005ff30 g     F .text	0000000000000056              _ZN153_$LT$core..result..Result$LT$T$C$F$GT$$u20$as$u20$core..ops..try_trait..FromResidual$LT$core..result..Result$LT$core..convert..Infallible$C$E$GT$$GT$$GT$13from_residual17hb512892499e8aedfE
0000000000075ca0 g     F .text	000000000000002e              _ZN4core3cmp5impls69_$LT$impl$u20$core..cmp..PartialEq$LT$$RF$B$GT$$u20$for$u20$$RF$A$GT$2eq17hae9a575b4f527a92E
0000000000067bf0 g     F .text	00000000000000a5              _ZN70_$LT$core..option..Option$LT$T$GT$$u20$as$u20$core..cmp..PartialEq$GT$2eq17h99b121541b224971E
00000000000685a0 g     F .text	0000000000000070              _ZN3std2fs4read17h1b19b3bd80f79f7dE
0000000000061cc0 g     F .text	0000000000000099              _ZN79_$LT$core..result..Result$LT$T$C$E$GT$$u20$as$u20$core..ops..try_trait..Try$GT$6branch17h7a72ce37f1e0f54eE
0000000000061fd0 g     F .text	00000000000000a0              _ZN79_$LT$core..result..Result$LT$T$C$E$GT$$u20$as$u20$core..ops..try_trait..Try$GT$6branch17ha2aef07830ad68e4E
000000000006a840 g     F .text	000000000000017b              _ZN4core3str21_$LT$impl$u20$str$GT$12trim_matches17h756bd02cb898dccdE
000000000006afe0 g     F .text	000000000000001c              _ZN5alloc3vec12Vec$LT$T$GT$3new17h0b6a294ca27921fdE
00000000000bf42d g     F .text	0000000000000064              _ZN4core9panicking36panic_misaligned_pointer_dereference17hd70b9a7c3c59ff09E
00000000000bf3f5 g     F .text	0000000000000038              _ZN4core9panicking30panic_null_pointer_dereference17h7e641ab1c0bfa6c9E
000000000006b020 g     F .text	000000000000001c              _ZN5alloc3vec12Vec$LT$T$GT$3new17hf907e778b07eda98E
000000000005ffe0 g     F .text	0000000000000058              _ZN153_$LT$core..result..Result$LT$T$C$F$GT$$u20$as$u20$core..ops..try_trait..FromResidual$LT$core..result..Result$LT$core..convert..Infallible$C$E$GT$$GT$$GT$13from_residual17hc3051ad2e8f2fcadE
00000000000618f0 g     F .text	0000000000000091              _ZN79_$LT$core..result..Result$LT$T$C$E$GT$$u20$as$u20$core..ops..try_trait..Try$GT$6branch17h60f03fa40b1c8837E
000000000006b940 g     F .text	0000000000000010              _ZN72_$LT$alloc..vec..Vec$LT$T$C$A$GT$$u20$as$u20$core..ops..deref..Deref$GT$5deref17h53bed84bc8757896E
000000000006b970 g     F .text	0000000000000010              _ZN72_$LT$alloc..vec..Vec$LT$T$C$A$GT$$u20$as$u20$core..ops..deref..Deref$GT$5deref17hebd6557466bbeea3E
000000000006b960 g     F .text	0000000000000010              _ZN72_$LT$alloc..vec..Vec$LT$T$C$A$GT$$u20$as$u20$core..ops..deref..Deref$GT$5deref17h5dea77668685ebc2E
000000000006b000 g     F .text	000000000000001c              _ZN5alloc3vec12Vec$LT$T$GT$3new17he5c69dbbac4c56aeE
000000000008ce20 g     F .text	00000000000000f4              _ZN47_$LT$std..fs..File$u20$as$u20$std..io..Read$GT$11read_to_end17h86d320751dc14a00E
0000000000075300 g     F .text	0000000000000052              _ZN79_$LT$core..result..Result$LT$T$C$E$GT$$u20$as$u20$core..ops..try_trait..Try$GT$6branch17h263e69ec413fd44fE
000000000005f7c0 g     F .text	0000000000000010              _ZN106_$LT$chrono..offset..local..tz_info..Error$u20$as$u20$core..convert..From$LT$std..io..error..Error$GT$$GT$4from17h9eb0e1c0e9553aa2E
000000000005f7d0 g     F .text	0000000000000016              _ZN112_$LT$chrono..offset..local..tz_info..Error$u20$as$u20$core..convert..From$LT$core..str..error..Utf8Error$GT$$GT$4from17hef0249c97c2121ecE
000000000005f7f0 g     F .text	0000000000000011              _ZN116_$LT$chrono..offset..local..tz_info..Error$u20$as$u20$core..convert..From$LT$core..num..error..ParseIntError$GT$$GT$4from17hb7fa1bda3f553c1bE
0000000000066720 g     F .text	000000000000005d              _ZN4core4hash3sip15Hasher$LT$S$GT$5reset17hbbf33f49f1709c79E
000000000006ae90 g     F .text	0000000000000025              _ZN4core5slice3cmp81_$LT$impl$u20$core..cmp..PartialEq$LT$$u5b$U$u5d$$GT$$u20$for$u20$$u5b$T$u5d$$GT$2eq17ha4eabf20eecc1f41E
0000000000060a10 g     F .text	000000000000009c              _ZN4core6result19Result$LT$T$C$E$GT$6expect17hcbb407ab1b19765eE
000000000001af98 g     O .rodata	0000000000000100              _ZN4core7unicode12unicode_data11white_space14WHITESPACE_MAP17h4cf41e25fd3a5318E
0000000000067ca0 g     F .text	000000000000023e              _ZN71_$LT$core..hash..sip..Hasher$LT$S$GT$$u20$as$u20$core..hash..Hasher$GT$5write17hb67c039de98a8ac6E
0000000000067ee0 g     F .text	000000000000009c              _ZN71_$LT$core..hash..sip..Hasher$LT$S$GT$$u20$as$u20$core..hash..Hasher$GT$6finish17h61ab69057bb89dbfE
00000000000a6030 g     F .text	0000000000000270              _ZN60_$LT$std..io..error..Error$u20$as$u20$core..fmt..Display$GT$3fmt17he762dae0cbfe0e23E
0000000000062430 g     F .text	00000000000000bb              _ZN118_$LT$$u5b$core..mem..maybe_uninit..MaybeUninit$LT$T$GT$$u5d$$u20$as$u20$core..array..iter..iter_inner..PartialDrop$GT$12partial_drop17h6a873f25d1fcc165E
00000000000624f0 g     F .text	0000000000000036              _ZN129_$LT$$u5b$core..mem..maybe_uninit..MaybeUninit$LT$T$GT$$u3b$$u20$N$u5d$$u20$as$u20$core..array..iter..iter_inner..PartialDrop$GT$12partial_drop17hd50847fa3b7b615cE
00000000000628a0 g     F .text	0000000000000016              _ZN55_$LT$$RF$T$u20$as$u20$core..convert..AsRef$LT$U$GT$$GT$6as_ref17hbcc40acc0e4effaeE
000000000008b380 g     F .text	0000000000000187              _ZN3std4path4Path5_join17h7844c17c52e6efdbE
00000000000625c0 g     F .text	0000000000000041              _ZN49_$LT$F$u20$as$u20$core..str..pattern..Pattern$GT$13into_searcher17h1475853dd6981295E
0000000000062610 g     F .text	0000000000000041              _ZN49_$LT$F$u20$as$u20$core..str..pattern..Pattern$GT$13into_searcher17hefb384e7191dcc22E
0000000000062680 g     F .text	000000000000001c              _ZN4core3cmp9PartialEq2ne17h438cd5bc53829395E
00000000000626a0 g     F .text	000000000000008a              _ZN4core5slice29_$LT$impl$u20$$u5b$T$u5d$$GT$11split_first17h03691ee95a424f23E
0000000000062730 g     F .text	0000000000000014              _ZN4core5slice29_$LT$impl$u20$$u5b$T$u5d$$GT$8is_empty17h8f748a8fc0334042E
00000000000be6e0 g     F .text	00000000000000d7              _ZN4core5slice6memchr14memchr_aligned17h7e0cc2bb9b2425e0E
00000000000b5ba0 g     F .text	0000000000000077              _ZN67_$LT$alloc..boxed..Box$LT$str$GT$$u20$as$u20$core..clone..Clone$GT$5clone17h99dc39076b9f17afE
0000000000069aa0 g     F .text	00000000000000eb              _ZN6chrono6format10formatting14write_hundreds17h99c9cd4a6e5dd97eE
0000000000078760 g     F .text	000000000000003a              _ZN75_$LT$core..option..Option$LT$T$GT$$u20$as$u20$core..ops..try_trait..Try$GT$6branch17h8a4b7ccda9c9320cE
00000000000660c0 g     F .text	0000000000000008              _ZN145_$LT$core..option..Option$LT$T$GT$$u20$as$u20$core..ops..try_trait..FromResidual$LT$core..option..Option$LT$core..convert..Infallible$GT$$GT$$GT$13from_residual17h98704314e2d391b1E
0000000000067200 g     F .text	000000000000001d              _ZN4core6option15Option$LT$T$GT$7is_some17h14ea3e1c1802e467E
000000000006d230 g     F .text	000000000000003e              _ZN4core3str21_$LT$impl$u20$str$GT$11starts_with17ha5ba1a026a33ba17E
000000000006ab50 g     F .text	00000000000000bb              _ZN4core3str21_$LT$impl$u20$str$GT$4find17h0717c673fe99a0f6E
000000000006ac10 g     F .text	00000000000000bb              _ZN4core3str21_$LT$impl$u20$str$GT$4find17h4e7f5e1d845b74e3E
0000000000067fa0 g     F .text	0000000000000067              _ZN75_$LT$core..option..Option$LT$T$GT$$u20$as$u20$core..ops..try_trait..Try$GT$6branch17h31cafe26b64e6220E
00000000000660d0 g     F .text	0000000000000007              _ZN145_$LT$core..option..Option$LT$T$GT$$u20$as$u20$core..ops..try_trait..FromResidual$LT$core..option..Option$LT$core..convert..Infallible$GT$$GT$$GT$13from_residual17habdacfa3b2004aa9E
0000000000073ae0 g     F .text	0000000000000156              _ZN3std2io5Write9write_fmt17hafb58f3ec8d685cfE
000000000008c1d0 g     F .text	0000000000000009              _ZN3std7process5abort17h97870e46d5a4dcf2E
0000000000067520 g     F .text	0000000000000088              _ZN66_$LT$core..option..Option$LT$T$GT$$u20$as$u20$core..fmt..Debug$GT$3fmt17hde77ddefde4d3539E
00000000000b0f4a g     F .text	0000000000000024              _ZN42_$LT$$RF$T$u20$as$u20$core..fmt..Debug$GT$3fmt17hcb0d9ce8dbf85179E
00000000000ac97c g     F .text	00000000000000bb              _ZN5alloc7raw_vec20RawVecInner$LT$A$GT$15try_allocate_in17h537773684db19152E
000000000006e270 g     F .text	000000000000009c              _ZN5alloc7raw_vec19RawVec$LT$T$C$A$GT$8into_box17h48eab698985d6c77E
00000000000838a0 g     F .text	00000000000000d0              _ZN3std2fs11OpenOptions5_open17h005de3b10d8796e4E
00000000000870d0 g     F .text	000000000000014b              _ZN3std3sys2fs16symlink_metadata17h36601b41e73268cdE
0000000000083e90 g     F .text	0000000000000346              _ZN3std2fs4read5inner17h67990cf9e75cbe0dE
000000000006a530 g     F .text	00000000000000db              _ZN100_$LT$core..iter..adapters..take..Take$LT$I$GT$$u20$as$u20$core..iter..traits..iterator..Iterator$GT$8try_fold17h8dd510cbab1cab0bE
0000000000074a30 g     F .text	0000000000000274              _ZN4core3str11validations23next_code_point_reverse17h75a07c315f3c9976E
0000000000072280 g     F .text	0000000000000042              _ZN14iana_time_zone8platform18get_timezone_inner17h211938760588eeb2E
000000000006d390 g     F .text	0000000000000114              _ZN4core3str21_$LT$impl$u20$str$GT$18trim_start_matches17h658c0714ebc7d916E
000000000006b980 g     F .text	0000000000000079              _ZN73_$LT$$u5b$A$u5d$$u20$as$u20$core..slice..cmp..SlicePartialEq$LT$B$GT$$GT$5equal17h57917212bdcb80a9E
000000000006b510 g     F .text	00000000000000e5              _ZN5alloc3vec16Vec$LT$T$C$A$GT$8push_mut17h65877ba8cb0068b1E
000000000006b600 g     F .text	00000000000000f8              _ZN5alloc3vec16Vec$LT$T$C$A$GT$8push_mut17he9ad44fa06f73758E
000000000006b410 g     F .text	00000000000000f3              _ZN5alloc3vec16Vec$LT$T$C$A$GT$8push_mut17h60dfcec1c40ea5d8E
00000000000ab59b g     F .text	0000000000000031              _ZN5alloc7raw_vec20RawVecInner$LT$A$GT$7reserve21do_reserve_and_handle17h1dede845ea1342a1E
000000000006b2a0 g     F .text	0000000000000051              _ZN5alloc3vec16Vec$LT$T$C$A$GT$8as_slice17h1e9eb606761f54c5E
000000000006b300 g     F .text	0000000000000051              _ZN5alloc3vec16Vec$LT$T$C$A$GT$8as_slice17h4e9e1257ac2c642dE
000000000006b360 g     F .text	0000000000000051              _ZN5alloc3vec16Vec$LT$T$C$A$GT$8as_slice17he873625c7cf75040E
000000000006b3c0 g     F .text	000000000000004f              _ZN5alloc3vec16Vec$LT$T$C$A$GT$8as_slice17hf61e8f2c1fc1c2fdE
000000000006b700 g     F .text	0000000000000093              _ZN5alloc7raw_vec19RawVec$LT$T$C$A$GT$8grow_one17h6996d7f37023e4c2E
000000000006b840 g     F .text	0000000000000093              _ZN5alloc7raw_vec19RawVec$LT$T$C$A$GT$8grow_one17hacd913fea608fbdfE
000000000006b7a0 g     F .text	0000000000000093              _ZN5alloc7raw_vec19RawVec$LT$T$C$A$GT$8grow_one17h754c5195767b3b61E
000000000006ea60 g     F .text	0000000000000159              _ZN104_$LT$core..str..pattern..MultiCharEqSearcher$LT$C$GT$$u20$as$u20$core..str..pattern..ReverseSearcher$GT$9next_back17h50fd699ca8ba38e8E
000000000006ebc0 g     F .text	0000000000000021              _ZN106_$LT$core..str..pattern..CharPredicateSearcher$LT$F$GT$$u20$as$u20$core..str..pattern..ReverseSearcher$GT$16next_reject_back17h08e0ac91489f9803E
000000000006f400 g     F .text	0000000000000091              _ZN4core3str7pattern15ReverseSearcher16next_reject_back17h7a243d747b428a6aE
000000000006ebf0 g     F .text	00000000000001a2              _ZN150_$LT$$LT$alloc..vec..drain..Drain$LT$T$C$A$GT$$u20$as$u20$core..ops..drop..Drop$GT$..drop..DropGuard$LT$T$C$A$GT$$u20$as$u20$core..ops..drop..Drop$GT$4drop17h14555e4e89f5dbf1E
000000000006eda0 g     F .text	0000000000000162              _ZN4core3str4iter22SplitInternal$LT$P$GT$4next17h3cfe7710648ddd16E
000000000006f1a0 g     F .text	0000000000000117              _ZN4core3str4iter22SplitInternal$LT$P$GT$7get_end17hda026134fd1283f9E
000000000006ef10 g     F .text	0000000000000164              _ZN4core3str4iter22SplitInternal$LT$P$GT$4next17hc9e248ef204b8f61E
0000000000071af0 g     F .text	000000000000000d              _ZN99_$LT$core..str..pattern..CharPredicateSearcher$LT$F$GT$$u20$as$u20$core..str..pattern..Searcher$GT$8haystack17h1bd14c0cf64f904cE
0000000000071a90 g     F .text	0000000000000021              _ZN99_$LT$core..str..pattern..CharPredicateSearcher$LT$F$GT$$u20$as$u20$core..str..pattern..Searcher$GT$10next_match17h0f6d54188341d160E
000000000006f080 g     F .text	000000000000011b              _ZN4core3str4iter22SplitInternal$LT$P$GT$7get_end17hc69876aa148a695eE
000000000006f2c0 g     F .text	0000000000000095              _ZN4core3str4iter23SplitNInternal$LT$P$GT$4next17h3c10911c6d100901E
000000000006f360 g     F .text	0000000000000095              _ZN4core3str4iter23SplitNInternal$LT$P$GT$4next17hc85340c5c846c510E
000000000006f4a0 g     F .text	0000000000000091              _ZN4core3str7pattern8Searcher10next_match17he9e131b363d45ffaE
00000000000717d0 g     F .text	0000000000000159              _ZN97_$LT$core..str..pattern..MultiCharEqSearcher$LT$C$GT$$u20$as$u20$core..str..pattern..Searcher$GT$4next17h5e8fbf47c10074faE
000000000006f540 g     F .text	0000000000000091              _ZN4core3str7pattern8Searcher11next_reject17hbc5b292cf4820a02E
0000000000071930 g     F .text	0000000000000159              _ZN97_$LT$core..str..pattern..MultiCharEqSearcher$LT$C$GT$$u20$as$u20$core..str..pattern..Searcher$GT$4next17hfc9cc73be23e04a5E
000000000006f5e0 g     F .text	0000000000000009              _ZN4core4iter6traits8iterator8Iterator6by_ref17hdbe00e21d06b8bc9E
000000000006f5f0 g     F .text	0000000000000053              _ZN4core4iter6traits8iterator8Iterator7collect17h7acac60d850c8e20E
000000000006f650 g     F .text	0000000000000033              _ZN4core4iter6traits8iterator8Iterator8for_each17hee321b5c71c6d966E
0000000000070bc0 g     F .text	0000000000000014              _ZN72_$LT$$RF$mut$u20$I$u20$as$u20$core..iter..traits..iterator..Iterator$GT$4fold17h4ba2d2e91d7ed72dE
000000000006f690 g     F .text	00000000000000ca              _ZN4core4iter6traits8iterator8Iterator8try_fold17h74e48c8a5a5f90edE
0000000000071770 g     F .text	0000000000000059              _ZN96_$LT$alloc..vec..drain..Drain$LT$T$C$A$GT$$u20$as$u20$core..iter..traits..iterator..Iterator$GT$4next17h7a646714782961e9E
000000000006f760 g     F .text	00000000000000ec              _ZN4core4iter6traits8iterator8Iterator8try_fold17h75f39f71ec3d5678E
000000000006fa60 g     F .text	0000000000000199              _ZN5alloc3vec6splice55_$LT$impl$u20$alloc..vec..drain..Drain$LT$T$C$A$GT$$GT$4fill17h3c8c37664f396456E
000000000006fc00 g     F .text	000000000000019a              _ZN5alloc3vec6splice55_$LT$impl$u20$alloc..vec..drain..Drain$LT$T$C$A$GT$$GT$4fill17h84063b9854c15ceeE
000000000006fda0 g     F .text	00000000000001c6              _ZN5alloc3vec6splice55_$LT$impl$u20$alloc..vec..drain..Drain$LT$T$C$A$GT$$GT$9move_tail17h29633733ffb43058E
000000000006ff70 g     F .text	0000000000000754              _ZN5alloc6string6String13replace_range17hccf8862a3c8f8c75E
0000000000070b80 g     F .text	0000000000000009              _ZN63_$LT$I$u20$as$u20$core..iter..traits..collect..IntoIterator$GT$9into_iter17h36895f954b1b9b54E
0000000000070b90 g     F .text	0000000000000011              _ZN63_$LT$I$u20$as$u20$core..iter..traits..collect..IntoIterator$GT$9into_iter17he2874d8806589158E
0000000000070c10 g     F .text	0000000000000042              _ZN79_$LT$$RF$mut$u20$I$u20$as$u20$core..iter..traits..iterator..IteratorRefSpec$GT$9spec_fold17hb788f9f3520667b2E
0000000000070be0 g     F .text	0000000000000023              _ZN72_$LT$$RF$mut$u20$I$u20$as$u20$core..iter..traits..iterator..Iterator$GT$9size_hint17h0ba2912433ca2636E
0000000000070c60 g     F .text	00000000000002bf              _ZN79_$LT$alloc..vec..drain..Drain$LT$T$C$A$GT$$u20$as$u20$core..ops..drop..Drop$GT$4drop17hfbb8ce3c93d8b90bE
00000000000715d0 g     F .text	0000000000000010              _ZN91_$LT$core..str..iter..SplitN$LT$P$GT$$u20$as$u20$core..iter..traits..iterator..Iterator$GT$4next17h16a394586e9718bbE
00000000000715e0 g     F .text	0000000000000010              _ZN91_$LT$core..str..iter..SplitN$LT$P$GT$$u20$as$u20$core..iter..traits..iterator..Iterator$GT$4next17hf8713c5051dadfc5E
00000000000715f0 g     F .text	00000000000000b5              _ZN95_$LT$core..str..pattern..MultiCharEqPattern$LT$C$GT$$u20$as$u20$core..str..pattern..Pattern$GT$13into_searcher17h20dc88ee3828d155E
00000000000716b0 g     F .text	00000000000000b5              _ZN95_$LT$core..str..pattern..MultiCharEqPattern$LT$C$GT$$u20$as$u20$core..str..pattern..Pattern$GT$13into_searcher17h4948add75c8cff7cE
0000000000071ac0 g     F .text	0000000000000021              _ZN99_$LT$core..str..pattern..CharPredicateSearcher$LT$F$GT$$u20$as$u20$core..str..pattern..Searcher$GT$11next_reject17h60f93b693b9dfc6bE
000000000006bd00 g     F .text	000000000000007f              _ZN3std2fs11OpenOptions4open17h9362716f301e1d04E
000000000006bda0 g     F .text	0000000000000070              _ZN3std2fs14read_to_string17h891a8305b1305aa6E
000000000006be10 g     F .text	0000000000000070              _ZN3std2fs9read_link17hab1dbfd489bb5261E
000000000006be80 g     F .text	000000000000042d              _ZN3std2io10read_until17h33db0d279e16fb5bE
0000000000083970 g     F .text	000000000000038e              _ZN3std2fs14read_to_string5inner17h9de4c5ac53797604E
0000000000087a80 g     F .text	0000000000000099              _ZN3std3sys2fs9read_link17h02d804c4aa4e5ef2E
0000000000077bb0 g     F .text	0000000000000028              _ZN85_$LT$std..io..buffered..bufreader..BufReader$LT$R$GT$$u20$as$u20$std..io..BufRead$GT$8fill_buf17h54066fb88798f45aE
00000000000759f0 g     F .text	000000000000010c              _ZN115_$LT$core..ops..range..RangeInclusive$LT$usize$GT$$u20$as$u20$core..slice..index..SliceIndex$LT$$u5b$T$u5d$$GT$$GT$5index17he6ff7d3f3c52ab7cE
0000000000077b60 g     F .text	0000000000000049              _ZN85_$LT$std..io..buffered..bufreader..BufReader$LT$R$GT$$u20$as$u20$std..io..BufRead$GT$7consume17hb2271c7ae566a5a9E
0000000000074780 g     F .text	000000000000003c              _ZN4core3ptr89drop_in_place$LT$core..result..Result$LT$$RF$$u5b$u8$u5d$$C$std..io..error..Error$GT$$GT$17h8a327ff8ab791471E
000000000006c2b0 g     F .text	000000000000028b              _ZN3std2io16append_to_string17hec6cb4c53083573fE
000000000006cf30 g     F .text	0000000000000024              _ZN3std2io7BufRead9read_line28_$u7b$$u7b$closure$u7d$$u7d$17h2c0ed65ebe00bdfaE
0000000000074420 g     F .text	000000000000000d              _ZN4core3ptr35drop_in_place$LT$std..io..Guard$GT$17hf2f6b740db7a7ac8E
00000000000746a0 g     F .text	000000000000002a              _ZN4core3ptr78drop_in_place$LT$core..result..Result$LT$usize$C$std..io..error..Error$GT$$GT$17hc9f0ed250248eba4E
000000000006c540 g     F .text	000000000000013c              _ZN3std2io17default_write_fmt17ha7210a3be120fe1eE
00000000000747c0 g     F .text	0000000000000011              _ZN4core3ptr93drop_in_place$LT$std..io..default_write_fmt..Adapter$LT$std..sys..stdio..unix..Stderr$GT$$GT$17h3440beadf4851e81E
000000000006cf00 g     F .text	0000000000000009              _ZN3std2io5error14repr_bitpacked4Repr4data28_$u7b$$u7b$closure$u7d$$u7d$17he048de38579cd840E
000000000006c870 g     F .text	00000000000001ea              _ZN3std2io5error14repr_bitpacked11decode_repr17h53e871f635cc7d14E
000000000006e6a0 g     F .text	0000000000000029              _ZN78_$LT$std..io..error..repr_bitpacked..Repr$u20$as$u20$core..ops..drop..Drop$GT$4drop28_$u7b$$u7b$closure$u7d$$u7d$17h1c4a9dd379cd4a88E
000000000006cf10 g     F .text	000000000000001c              _ZN3std2io5impls57_$LT$impl$u20$std..io..Read$u20$for$u20$$RF$mut$u20$R$GT$8read_buf17hf68e1356491202fcE
000000000008cf20 g     F .text	000000000000006c              _ZN47_$LT$std..fs..File$u20$as$u20$std..io..Read$GT$8read_buf17h6293496402feb8cbE
000000000006cf60 g     F .text	0000000000000041              _ZN49_$LT$F$u20$as$u20$core..str..pattern..Pattern$GT$13into_searcher17he7c94327414e0008E
000000000006cfb0 g     F .text	000000000000006c              _ZN4core3fmt5Write10write_char17h1816622debea897eE
000000000006e6d0 g     F .text	00000000000000a9              _ZN81_$LT$std..io..default_write_fmt..Adapter$LT$T$GT$$u20$as$u20$core..fmt..Write$GT$9write_str17h00dba6d2ddb2e4e1E
000000000006d020 g     F .text	000000000000000f              _ZN4core3fmt5Write9write_fmt17h55e9c0d4b85d3554E
000000000006e460 g     F .text	0000000000000160              _ZN75_$LT$$RF$mut$u20$W$u20$as$u20$core..fmt..Write..write_fmt..SpecWriteFmt$GT$14spec_write_fmt17hac5a1df01c369727E
000000000006d0f0 g     F .text	000000000000001e              _ZN4core3ops9try_trait26NeverShortCircuit$LT$T$GT$10wrap_mut_228_$u7b$$u7b$closure$u7d$$u7d$17h420060c90ec8c09bE
0000000000074d90 g     F .text	000000000000001d              _ZN4core4iter6traits8iterator8Iterator8for_each4call28_$u7b$$u7b$closure$u7d$$u7d$17hbe58ee76746402e6E
000000000006d110 g     F .text	000000000000001e              _ZN4core3ops9try_trait26NeverShortCircuit$LT$T$GT$10wrap_mut_228_$u7b$$u7b$closure$u7d$$u7d$17h766bfdb2b781df55E
0000000000074db0 g     F .text	000000000000001e              _ZN4core4iter6traits8iterator8Iterator8for_each4call28_$u7b$$u7b$closure$u7d$$u7d$17he14875e84d617782E
000000000006d270 g     F .text	000000000000011a              _ZN4core3str21_$LT$impl$u20$str$GT$16trim_end_matches17h1b8d5a4e7e45ca87E
000000000006d4e0 g     F .text	00000000000000c2              _ZN4core3str21_$LT$impl$u20$str$GT$6splitn17h98452731e4f069d4E
0000000000074180 g     F .text	0000000000000041              _ZN49_$LT$F$u20$as$u20$core..str..pattern..Pattern$GT$13into_searcher17hde92828cef8481f1E
000000000006d5b0 g     F .text	00000000000000e6              _ZN4core3str21_$LT$impl$u20$str$GT$6splitn17hb2b4415baa0a0565E
000000000006dfd0 g     F .text	0000000000000277              _ZN4core5slice5index5range17ha324494a9b2a6be1E
0000000000075b10 g     F .text	000000000000000e              _ZN142_$LT$$LP$core..ops..range..Bound$LT$$RF$T$GT$$C$core..ops..range..Bound$LT$$RF$T$GT$$RP$$u20$as$u20$core..ops..range..RangeBounds$LT$T$GT$$GT$9end_bound17h0beb9a3434b26dbbE
0000000000075b00 g     F .text	000000000000000d              _ZN142_$LT$$LP$core..ops..range..Bound$LT$$RF$T$GT$$C$core..ops..range..Bound$LT$$RF$T$GT$$RP$$u20$as$u20$core..ops..range..RangeBounds$LT$T$GT$$GT$11start_bound17hb1a679282f3e77beE
000000000006e250 g     F .text	000000000000001a              _ZN53_$LT$F$u20$as$u20$core..str..pattern..MultiCharEq$GT$7matches17h21dbf1ee9dcfbb6aE
00000000000742f0 g     F .text	000000000000002a              _ZN4core3ptr101drop_in_place$LT$std..io..error..ErrorData$LT$alloc..boxed..Box$LT$std..io..error..Custom$GT$$GT$$GT$17h737188fc3832ca30E
0000000000073830 g     F .text	00000000000002af              _ZN3std2io5Write9write_all17he33ede78339c9f1bE
000000000006e8e0 g     F .text	0000000000000001              _ZN94_$LT$core..ops..try_trait..NeverShortCircuit$LT$T$GT$$u20$as$u20$core..ops..try_trait..Try$GT$11from_output17h25aed80dfcc4ddb2E
000000000006e8f0 g     F .text	0000000000000001              _ZN94_$LT$core..ops..try_trait..NeverShortCircuit$LT$T$GT$$u20$as$u20$core..ops..try_trait..Try$GT$6branch17h3c84090891e8c1e2E
0000000000076590 g     F .text	0000000000000065              _ZN4core3ptr8non_null16NonNull$LT$T$GT$20offset_from_unsigned17he19b308d76527a79E
0000000000000000       F *UND*	0000000000000000              memmove
0000000000077f60 g     F .text	0000000000000046              _ZN95_$LT$alloc..vec..Vec$LT$T$GT$$u20$as$u20$core..iter..traits..collect..FromIterator$LT$T$GT$$GT$9from_iter17hd3d931ff6380af96E
0000000000074400 g     F .text	000000000000000d              _ZN4core3ptr349drop_in_place$LT$core..ops..try_trait..NeverShortCircuit$LT$$LP$$RP$$GT$..wrap_mut_2$LT$$LP$$RP$$C$u8$C$core..iter..traits..iterator..Iterator..for_each..call$LT$u8$C$alloc..vec..Vec$LT$u8$GT$..extend_trusted$LT$$RF$mut$u20$core..str..iter..Bytes$GT$..$u7b$$u7b$closure$u7d$$u7d$$GT$..$u7b$$u7b$closure$u7d$$u7d$$GT$..$u7b$$u7b$closure$u7d$$u7d$$GT$17hafff9cb9c2c67e23E
0000000000074e90 g     F .text	000000000000008e              _ZN4core6result19Result$LT$T$C$E$GT$6expect17hbc6147908ca1c9edE
0000000000077ec0 g     F .text	00000000000000a0              _ZN94_$LT$core..slice..iter..IterMut$LT$T$GT$$u20$as$u20$core..iter..traits..iterator..Iterator$GT$4next17h35d9741eed900721E
0000000000071b10 g     F .text	00000000000000ad              _ZN103_$LT$alloc..vec..into_iter..IntoIter$LT$T$C$A$GT$$u20$as$u20$core..iter..traits..iterator..Iterator$GT$4next17h2a9a4ebbbdb23c6fE
0000000000077e90 g     F .text	0000000000000014              _ZN93_$LT$core..ops..range..RangeTo$LT$T$GT$$u20$as$u20$core..ops..range..RangeBounds$LT$T$GT$$GT$11start_bound17hf8c142d34253b31eE
0000000000077eb0 g     F .text	000000000000000e              _ZN93_$LT$core..ops..range..RangeTo$LT$T$GT$$u20$as$u20$core..ops..range..RangeBounds$LT$T$GT$$GT$9end_bound17hb3b12ff34face820E
00000000000772d0 g     F .text	00000000000000f1              _ZN5alloc3vec16Vec$LT$T$C$A$GT$6splice17h04e683daf21bf8bcE
0000000000074640 g     F .text	0000000000000060              _ZN4core3ptr77drop_in_place$LT$alloc..vec..splice..Splice$LT$core..str..iter..Bytes$GT$$GT$17hd9c6a5b70faf2e8eE
00000000000770b0 g     F .text	000000000000006e              _ZN5alloc3vec16Vec$LT$T$C$A$GT$5clear17hf1240cd70513f457E
00000000000743d0 g     F .text	000000000000000d              _ZN4core3ptr149drop_in_place$LT$$LT$alloc..vec..drain..Drain$LT$T$C$A$GT$$u20$as$u20$core..ops..drop..Drop$GT$..drop..DropGuard$LT$u8$C$alloc..alloc..Global$GT$$GT$17hb092e5fd00d879a4E
0000000000077d90 g     F .text	00000000000000a0              _ZN91_$LT$core..slice..iter..Iter$LT$T$GT$$u20$as$u20$core..iter..traits..iterator..Iterator$GT$4next17ha4cca27137d2d8ddE
0000000000077e30 g     F .text	000000000000005c              _ZN91_$LT$core..slice..iter..Iter$LT$T$GT$$u20$as$u20$core..iter..traits..iterator..Iterator$GT$9size_hint17h64204984b43ebe6eE
00000000000747e0 g     F .text	0000000000000249              _ZN4core3str11validations15next_code_point17h82e8a8b7f2b7566eE
0000000000075210 g     F .text	0000000000000019              _ZN53_$LT$F$u20$as$u20$core..str..pattern..MultiCharEq$GT$7matches17ha6f38b6fb02f0005E
0000000000071b00 g     F .text	000000000000000e              _ZN101_$LT$iana_time_zone..GetTimezoneError$u20$as$u20$core..convert..From$LT$std..io..error..Error$GT$$GT$4from17hd770ceeaa33a7200E
0000000000071bc0 g     F .text	0000000000000056              _ZN103_$LT$alloc..vec..into_iter..IntoIter$LT$T$C$A$GT$$u20$as$u20$core..iter..traits..iterator..Iterator$GT$9size_hint17hdf8b27f98f3253d5E
0000000000071c20 g     F .text	00000000000000fa              _ZN103_$LT$iana_time_zone..platform..openwrt..IterWords$u20$as$u20$core..iter..traits..iterator..Iterator$GT$4next17h0413b628126a1eeaE
0000000000075360 g     F .text	0000000000000099              _ZN79_$LT$core..result..Result$LT$T$C$E$GT$$u20$as$u20$core..ops..try_trait..Try$GT$6branch17h63ffb44a98a46133E
00000000000736f0 g     F .text	0000000000000050              _ZN153_$LT$core..result..Result$LT$T$C$F$GT$$u20$as$u20$core..ops..try_trait..FromResidual$LT$core..result..Result$LT$core..convert..Infallible$C$E$GT$$GT$$GT$13from_residual17h8d72df21943f9a55E
00000000000754b0 g     F .text	0000000000000099              _ZN79_$LT$core..result..Result$LT$T$C$E$GT$$u20$as$u20$core..ops..try_trait..Try$GT$6branch17ha02a349c102e4c55E
0000000000074f20 g     F .text	00000000000000c9              _ZN4core6result19Result$LT$T$C$E$GT$7map_err17h51d4160c53cebf5eE
0000000000075400 g     F .text	00000000000000a6              _ZN79_$LT$core..result..Result$LT$T$C$E$GT$$u20$as$u20$core..ops..try_trait..Try$GT$6branch17h6c571daffc0237d7E
0000000000073740 g     F .text	0000000000000037              _ZN153_$LT$core..result..Result$LT$T$C$F$GT$$u20$as$u20$core..ops..try_trait..FromResidual$LT$core..result..Result$LT$core..convert..Infallible$C$E$GT$$GT$$GT$13from_residual17he1cdb21a1ebdeb36E
0000000000076a70 g     F .text	000000000000004e              _ZN4core5slice4iter87_$LT$impl$u20$core..iter..traits..collect..IntoIterator$u20$for$u20$$RF$$u5b$T$u5d$$GT$9into_iter17h718c076d79896ea1E
0000000000074ff0 g     F .text	000000000000009b              _ZN4core6result19Result$LT$T$C$E$GT$7or_else17h5b295971fb283d43E
0000000000075090 g     F .text	000000000000009b              _ZN4core6result19Result$LT$T$C$E$GT$7or_else17had4c2e0aa88a5d93E
00000000000723b0 g     F .text	0000000000000003              _ZN14iana_time_zone8platform7openwrt136_$LT$impl$u20$core..convert..From$LT$iana_time_zone..platform..openwrt..BrokenQuote$GT$$u20$for$u20$iana_time_zone..GetTimezoneError$GT$4from17h6e92212551a9ba24E
0000000000075c30 g     F .text	0000000000000027              _ZN3std2io8buffered9bufreader18BufReader$LT$R$GT$3new17hb24e6f1f3f99be1bE
0000000000074710 g     F .text	0000000000000061              _ZN4core3ptr81drop_in_place$LT$std..io..buffered..bufreader..BufReader$LT$std..fs..File$GT$$GT$17h9b206ec454c2dc7bE
0000000000075b20 g     F .text	0000000000000027              _ZN3std2io7BufRead9read_line17h59107ab6c75b23eeE
0000000000076bc0 g     F .text	00000000000000b6              _ZN4core6option15Option$LT$T$GT$5ok_or17hfb916f22d777174eE
00000000000755b0 g     F .text	0000000000000057              _ZN79_$LT$core..result..Result$LT$T$C$E$GT$$u20$as$u20$core..ops..try_trait..Try$GT$6branch17hdbd51b17ee7600a3E
0000000000073780 g     F .text	0000000000000039              _ZN153_$LT$core..result..Result$LT$T$C$F$GT$$u20$as$u20$core..ops..try_trait..FromResidual$LT$core..result..Result$LT$core..convert..Infallible$C$E$GT$$GT$$GT$13from_residual17hf584957256c2d629E
0000000000077560 g     F .text	00000000000000a9              _ZN70_$LT$core..option..Option$LT$T$GT$$u20$as$u20$core..cmp..PartialEq$GT$2eq17h90e41d5917ac72caE
0000000000076c80 g     F .text	0000000000000023              _ZN4core6option15Option$LT$T$GT$7is_none17h874a1150f482d24aE
0000000000076cb0 g     F .text	0000000000000093              _ZN4core6option47Option$LT$core..result..Result$LT$T$C$E$GT$$GT$9transpose17h9e95fe96d1554802E
0000000000076940 g     F .text	000000000000002d              _ZN4core3str6traits66_$LT$impl$u20$core..ops..index..Index$LT$I$GT$$u20$for$u20$str$GT$5index17h49ea50f5d504e48dE
00000000000737c0 g     F .text	000000000000006e              _ZN157_$LT$$LT$alloc..vec..into_iter..IntoIter$LT$T$C$A$GT$$u20$as$u20$core..ops..drop..Drop$GT$..drop..DropGuard$LT$T$C$A$GT$$u20$as$u20$core..ops..drop..Drop$GT$4drop17h3d119422380abb23E
0000000000074510 g     F .text	000000000000000d              _ZN4core3ptr53drop_in_place$LT$alloc..raw_vec..RawVec$LT$u8$GT$$GT$17h632c76fff1b8a9caE
00000000000a6ca0 g     F .text	000000000000004e              _ZN64_$LT$std..sys..stdio..unix..Stderr$u20$as$u20$std..io..Write$GT$5write17hdaa1f89d080c2b33E
0000000000073c40 g     F .text	000000000000023d              _ZN3std2io8buffered9bufreader6buffer6Buffer8fill_buf17h75a40b99327a84beE
0000000000000000       F *UND*	0000000000000000              fcntl
0000000000000000       F *UND*	0000000000000000              __errno_location
0000000000074240 g     F .text	0000000000000068              _ZN4core3cmp3Ord3min17heaf78ac8a9400f28E
0000000000075cd0 g     F .text	0000000000000008              _ZN4core3mem4drop17h3ce274e1116630b6E
00000000000745a0 g     F .text	000000000000005c              _ZN4core3ptr68drop_in_place$LT$alloc..boxed..Box$LT$std..io..error..Custom$GT$$GT$17hf1adbeb608da9cc6E
0000000000074320 g     F .text	000000000000001e              _ZN4core3ptr102drop_in_place$LT$alloc..boxed..Box$LT$$u5b$core..mem..maybe_uninit..MaybeUninit$LT$u8$GT$$u5d$$GT$$GT$17hb125c6262ad77d67E
00000000000777a0 g     F .text	00000000000000c8              _ZN72_$LT$alloc..boxed..Box$LT$T$C$A$GT$$u20$as$u20$core..ops..drop..Drop$GT$4drop17hd72e5d720770d01bE
0000000000074340 g     F .text	0000000000000076              _ZN4core3ptr118drop_in_place$LT$alloc..boxed..Box$LT$dyn$u20$core..error..Error$u2b$core..marker..Sync$u2b$core..marker..Send$GT$$GT$17h25492b681c8d3b5eE
00000000000776d0 g     F .text	00000000000000c8              _ZN72_$LT$alloc..boxed..Box$LT$T$C$A$GT$$u20$as$u20$core..ops..drop..Drop$GT$4drop17h87d0a1c3ab4a77fbE
00000000000743c0 g     F .text	000000000000000d              _ZN4core3ptr133drop_in_place$LT$alloc..vec..Vec$LT$u8$GT$..extend_trusted$LT$$RF$mut$u20$core..str..iter..Bytes$GT$..$u7b$$u7b$closure$u7d$$u7d$$GT$17h56707e1f7605a660E
0000000000074580 g     F .text	000000000000000c              _ZN4core3ptr62drop_in_place$LT$alloc..vec..set_len_on_drop..SetLenOnDrop$GT$17h7380b22527d3a6b9E
00000000000743e0 g     F .text	000000000000000d              _ZN4core3ptr156drop_in_place$LT$$LT$alloc..vec..into_iter..IntoIter$LT$T$C$A$GT$$u20$as$u20$core..ops..drop..Drop$GT$..drop..DropGuard$LT$u8$C$alloc..alloc..Global$GT$$GT$17hf8bcb7ba7b51fb26E
00000000000743f0 g     F .text	000000000000000d              _ZN4core3ptr229drop_in_place$LT$core..iter..traits..iterator..Iterator..for_each..call$LT$u8$C$alloc..vec..Vec$LT$u8$GT$..extend_trusted$LT$$RF$mut$u20$core..str..iter..Bytes$GT$..$u7b$$u7b$closure$u7d$$u7d$$GT$..$u7b$$u7b$closure$u7d$$u7d$$GT$17h2e5b7ecf3e475315E
0000000000074460 g     F .text	000000000000000d              _ZN4core3ptr45drop_in_place$LT$std..sys..fs..unix..File$GT$17hfd7e1802db8f6537E
000000000009b1a0 g     F .text	000000000000000c              _ZN56_$LT$std..io..Guard$u20$as$u20$core..ops..drop..Drop$GT$4drop17heb49ac04b342d0f7E
0000000000074560 g     F .text	000000000000000c              _ZN4core3ptr57drop_in_place$LT$std..io..error..repr_bitpacked..Repr$GT$17h299fd678e9548183E
0000000000074450 g     F .text	000000000000000d              _ZN4core3ptr43drop_in_place$LT$std..io..error..Custom$GT$17h8c6976b5b0c0c044E
00000000000744f0 g     F .text	000000000000000d              _ZN4core3ptr49drop_in_place$LT$std..sys..fd..unix..FileDesc$GT$17h897dc809a6bb7edeE
00000000000acd0d g     F .text	0000000000000001              _ZN70_$LT$alloc..vec..Vec$LT$T$C$A$GT$$u20$as$u20$core..ops..drop..Drop$GT$4drop17h9d31ff021d90655fE
0000000000074500 g     F .text	000000000000000d              _ZN4core3ptr49drop_in_place$LT$std..sys..os_str..bytes..Buf$GT$17h6935ac3ca8807590E
00000000000744e0 g     F .text	000000000000000c              _ZN4core3ptr48drop_in_place$LT$std..os..fd..owned..OwnedFd$GT$17h650925b9a1309fdcE
00000000000acd4a g     F .text	0000000000000010              _ZN77_$LT$alloc..raw_vec..RawVec$LT$T$C$A$GT$$u20$as$u20$core..ops..drop..Drop$GT$4drop17h8d336a5866d2c9c3E
0000000000074550 g     F .text	000000000000000d              _ZN4core3ptr55drop_in_place$LT$alloc..vec..drain..Drain$LT$u8$GT$$GT$17h6a73da5c6a45c71aE
0000000000074570 g     F .text	000000000000000d              _ZN4core3ptr62drop_in_place$LT$alloc..vec..into_iter..IntoIter$LT$u8$GT$$GT$17ha6dc524658f8fdf6E
0000000000075610 g     F .text	000000000000008a              _ZN86_$LT$alloc..vec..into_iter..IntoIter$LT$T$C$A$GT$$u20$as$u20$core..ops..drop..Drop$GT$4drop17h1b4d15d779c1132bE
0000000000074590 g     F .text	000000000000000d              _ZN4core3ptr65drop_in_place$LT$std..io..buffered..bufreader..buffer..Buffer$GT$17h0319030d343cb11dE
0000000000077610 g     F .text	00000000000000b1              _ZN72_$LT$alloc..boxed..Box$LT$T$C$A$GT$$u20$as$u20$core..ops..drop..Drop$GT$4drop17h0aa20f54e92e08b6E
0000000000077870 g     F .text	00000000000002d3              _ZN81_$LT$alloc..vec..splice..Splice$LT$I$C$A$GT$$u20$as$u20$core..ops..drop..Drop$GT$4drop17h14830570a76bdf5fE
00000000000756a0 g     F .text	00000000000000fe              _ZN106_$LT$core..slice..iter..Iter$LT$T$GT$$u20$as$u20$core..iter..traits..double_ended..DoubleEndedIterator$GT$9next_back17h80a56324de79d86cE
0000000000074cb0 g     F .text	00000000000000db              _ZN4core4iter6traits10exact_size17ExactSizeIterator3len17ha4e08acc3a1a3de6E
0000000000077080 g     F .text	0000000000000024              _ZN5alloc3vec16Vec$LT$T$C$A$GT$14extend_trusted28_$u7b$$u7b$closure$u7d$$u7d$17heb904e3f83e0c878E
0000000000000000       F *UND*	0000000000000000              close
0000000000075830 g     F .text	00000000000001b5              _ZN111_$LT$alloc..vec..Vec$LT$T$GT$$u20$as$u20$alloc..vec..spec_from_iter_nested..SpecFromIterNested$LT$T$C$I$GT$$GT$9from_iter17h17436aedef37a474E
0000000000077fb0 g     F .text	0000000000000019              _ZN97_$LT$alloc..vec..Vec$LT$T$C$A$GT$$u20$as$u20$alloc..vec..spec_extend..SpecExtend$LT$T$C$I$GT$$GT$11spec_extend17hf0952daebc060a89E
0000000000075b50 g     F .text	00000000000000d7              _ZN3std2io8buffered9bufreader18BufReader$LT$R$GT$13with_capacity17h5a406520c919c964E
0000000000077480 g     F .text	000000000000008a              _ZN5alloc5boxed22Box$LT$$u5b$T$u5d$$GT$16new_uninit_slice17ha131df4731a946d9E
0000000000076ed0 g     F .text	00000000000001ab              _ZN5alloc3vec16Vec$LT$T$C$A$GT$14extend_trusted17hd924edeeeefe70bdE
0000000000077120 g     F .text	00000000000001ab              _ZN5alloc3vec16Vec$LT$T$C$A$GT$5drain17h81437f16e660986fE
0000000000077be0 g     F .text	0000000000000104              _ZN90_$LT$alloc..vec..Vec$LT$T$C$A$GT$$u20$as$u20$core..iter..traits..collect..IntoIterator$GT$9into_iter17h3ac30b81a4e3c651E
0000000000077fd0 g     F .text	0000000000000021              _ZN98_$LT$alloc..vec..Vec$LT$T$GT$$u20$as$u20$alloc..vec..spec_from_iter..SpecFromIter$LT$T$C$I$GT$$GT$9from_iter17hf777201355068d50E
0000000000000000       F *UND*	0000000000000000              posix_memalign
0000000000000000       F *UND*	0000000000000000              malloc
0000000000000000       F *UND*	0000000000000000              free
0000000000000000       F *UND*	0000000000000000              realloc
000000000008aa30 g     F .text	0000000000000009              _ZN3std3sys9backtrace26__rust_end_short_backtrace17h5d0fc36eef7265eaE
0000000000000000       F *UND*	0000000000000000              calloc
000000000008c000 g     F .text	0000000000000022              _ZN3std5alloc8rust_oom17h32c1205ec583ec04E
00000000000b64b0 g     F .text	0000000000000111              _ZN4core3ffi5c_str4CStr19from_bytes_with_nul17hd9d3fcb195341c68E
0000000000000000       F *UND*	0000000000000000              strlen
00000000000b8060 g     F .text	0000000000000037              _ZN4core3fmt9Formatter10debug_list17h65c6145fdb9d161eE
00000000000a6e10 g     F .text	00000000000003a6              _ZN80_$LT$std..path..Components$u20$as$u20$core..iter..traits..iterator..Iterator$GT$4next17h4572b55af0ad8c6bE
00000000000b8020 g     F .text	0000000000000034              _ZN4core3fmt8builders9DebugList6finish17h9f1ed223c61bd45dE
00000000000b7f00 g     F .text	0000000000000112              _ZN4core3fmt8builders9DebugList5entry17h4d43d322b4eddbe6E
0000000000078de0 g     F .text	0000000000000808              _ZN114_$LT$std..backtrace_rs..symbolize..gimli..parse_running_mmaps..MapsEntry$u20$as$u20$core..str..traits..FromStr$GT$8from_str17h3b8a007e7665abb8E
00000000000850a0 g     F .text	000000000000012b              _ZN3std2io5error5Error3new17h2fc9d5dda48b3f00E
00000000000b5330 g     F .text	000000000000011a              _ZN5alloc3ffi5c_str7CString19_from_vec_unchecked17h9b18f17488a9ab97E
00000000000a6d30 g     F .text	00000000000000d9              _ZN79_$LT$std..backtrace_rs..symbolize..SymbolName$u20$as$u20$core..fmt..Display$GT$3fmt17h325f30d2efa8bb4aE
00000000000869e0 g     F .text	00000000000001b8              _ZN3std3env11current_exe17h178ea5b0c6fe7af6E
000000000009d9a0 g     F .text	00000000000000a7              _ZN5alloc7raw_vec19RawVec$LT$T$C$A$GT$8grow_one17h4b7276bbfca1cf21E
00000000000b2811 g     F .text	0000000000001a2e              _ZN11miniz_oxide7inflate4core10decompress17hd0340682cf31b2acE
000000000008b510 g     F .text	00000000000000e1              _ZN3std4path4Path6is_dir17hfb38c9607b9eeb66E
00000000000a77b0 g     F .text	00000000000003aa              _ZN95_$LT$std..path..Components$u20$as$u20$core..iter..traits..double_ended..DoubleEndedIterator$GT$9next_back17hbcbc922bc972d0e1E
000000000008b6f0 g     F .text	0000000000000344              _ZN3std4path7PathBuf14_set_extension17hf8db8ef781192ad1E
000000000009d6a0 g     F .text	00000000000000bb              _ZN5alloc7raw_vec19RawVec$LT$T$C$A$GT$8grow_one17h2973b7bd7b0ca747E
0000000000000000       F *UND*	0000000000000000              munmap
00000000000ab0c0 g     F .text	000000000000004f              _ZN68_$LT$$RF$$u5b$u8$u5d$$u20$as$u20$object..read..read_ref..ReadRef$GT$19read_bytes_at_until17h4b50889810c8ea3fE
000000000008b600 g     F .text	00000000000000e1              _ZN3std4path4Path7is_file17h647d6328a9e591f5E
000000000008acf0 g     F .text	000000000000038d              _ZN3std4path10Components7as_path17hf5c3327ad0290fc8E
0000000000000000       F *UND*	0000000000000000              bcmp
000000000009a1b0 g     F .text	00000000000000da              _ZN4core5slice4sort8unstable7ipnsort17h3858089318914939E
0000000000000000       F *UND*	0000000000000000              fstat64
0000000000000000       F *UND*	0000000000000000              mmap64
0000000000000000       F *UND*	0000000000000000              dl_iterate_phdr
000000000009a830 g     F .text	00000000000000fa              _ZN51_$LT$$RF$std..fs..File$u20$as$u20$std..io..Read$GT$14read_to_string17h02ce27fa0f675c10E
000000000009dc70 g     F .text	00000000000000a7              _ZN5alloc7raw_vec19RawVec$LT$T$C$A$GT$8grow_one17h924985ffcf11be97E
000000000009d3b0 g     F .text	00000000000000a0              _ZN5alloc4sync16Arc$LT$T$C$A$GT$9drop_slow17hd3746840e25eb9bbE
000000000008b090 g     F .text	00000000000002ed              _ZN3std4path4Path13_strip_prefix17h70fd9b124dcff30fE
000000000009d340 g     F .text	0000000000000067              _ZN5alloc4sync16Arc$LT$T$C$A$GT$9drop_slow17h2a6044a3f06c871bE
000000000009d520 g     F .text	00000000000000b3              _ZN5alloc7raw_vec19RawVec$LT$T$C$A$GT$8grow_one17h111555f296425473E
000000000009db10 g     F .text	00000000000000ad              _ZN5alloc7raw_vec19RawVec$LT$T$C$A$GT$8grow_one17h7ee3230c6cd5f353E
00000000000acd0e g     F .text	000000000000003c              _ZN75_$LT$gimli..read..abbrev..Attributes$u20$as$u20$core..ops..deref..Deref$GT$5deref17h902270023d6e13b9E
000000000009da50 g     F .text	00000000000000bb              _ZN5alloc7raw_vec19RawVec$LT$T$C$A$GT$8grow_one17h4ff4a5005f20666bE
000000000009dbc0 g     F .text	00000000000000ad              _ZN5alloc7raw_vec19RawVec$LT$T$C$A$GT$8grow_one17h90b58f32061b71d8E
00000000000945f0 g     F .text	000000000000014f              _ZN4core5slice4sort6stable14driftsort_main17h4b70c1ec15790dc6E
0000000000094890 g     F .text	000000000000014f              _ZN4core5slice4sort6stable14driftsort_main17hade50cdc2768b7b2E
0000000000000000       F *UND*	0000000000000000              _Unwind_GetIP
00000000000837d0 g     F .text	00000000000000cf              _ZN3std12backtrace_rs9symbolize6Symbol4name17h4b374090ff03676eE
00000000000ad068 g     F .text	0000000000000055              _ZN14rustc_demangle12try_demangle17h45b3978dd18a2002E
00000000000b5970 g     F .text	00000000000000a4              _ZN5alloc6string6String17try_reserve_exact17h723edc4b37da6df2E
0000000000000000       F *UND*	0000000000000000              lseek64
0000000000000000       F *UND*	0000000000000000              write
0000000000000000       F *UND*	0000000000000000              read
0000000000000000       F *UND*	0000000000000000              writev
00000000000851d0 g     F .text	00000000000002e7              _ZN3std2io5error83_$LT$impl$u20$core..fmt..Debug$u20$for$u20$std..io..error..repr_bitpacked..Repr$GT$3fmt17h49e6fb6213228fb8E
00000000000b80f0 g     F .text	0000000000000031              _ZN4core3fmt9Formatter12debug_struct17heb67a1f9f98d9089E
00000000000b7d10 g     F .text	0000000000000186              _ZN4core3fmt8builders11DebugStruct5field17h8524cd7e0e847b26E
00000000000b7ea0 g     F .text	000000000000005a              _ZN4core3fmt8builders11DebugStruct6finish17hab28a677da18dd84E
0000000000000000       F *UND*	0000000000000000              __xpg_strerror_r
00000000000b5720 g     F .text	000000000000024e              _ZN5alloc6string6String15from_utf8_lossy17h21794fcc38759ff3E
00000000000b5d40 g     F .text	00000000000000a7              _ZN98_$LT$alloc..string..String$u20$as$u20$core..convert..From$LT$alloc..borrow..Cow$LT$str$GT$$GT$$GT$4from17h15dc617ecf36ace9E
00000000000b80a0 g     F .text	0000000000000048              _ZN4core3fmt9Formatter11debug_tuple17h287fb5cf395e5aedE
00000000000b7b50 g     F .text	0000000000000126              _ZN4core3fmt8builders10DebugTuple5field17hf87b1547c504b9ffE
00000000000b7c80 g     F .text	0000000000000081              _ZN4core3fmt8builders10DebugTuple6finish17h725fa46a38425d91E
000000000009d290 g     F .text	000000000000004e              _ZN5alloc4sync16Arc$LT$T$C$A$GT$9drop_slow17h141a6f4e9d738b40E
0000000000085860 g     F .text	00000000000000b8              _ZN3std2io5stdio22try_set_output_capture17ha63521e781b87ad4E
00000000000cd3e8 g     O .bss	0000000000000008              _ZN3std9panicking11panic_count18GLOBAL_PANIC_COUNT17h933148eac7c069a2E
0000000000089fd0 g     F .text	00000000000000e7              _ZN3std3sys4sync5mutex5futex5Mutex14lock_contended17h12c639f5f1e6de5eE
000000000008c1e0 g     F .text	000000000000001d              _ZN3std9panicking11panic_count17is_zero_slow_path17hca8cf3adadc2c48aE
0000000000000000       F *UND*	0000000000000000              syscall
00000000000000d8 g       .tbss	0000000000000008              _ZN3std6thread7current2id2ID17hd68731f8e2727904E
00000000000a62a0 g     F .text	000000000000027e              _ZN61_$LT$$RF$std..io..stdio..Stdout$u20$as$u20$std..io..Write$GT$9write_fmt17h5dd8bf1e1322f5f0E
0000000000085c50 g     F .text	0000000000000128              _ZN3std2io8buffered9bufwriter18BufWriter$LT$W$GT$14write_all_cold17h05534e9a2cb1915cE
0000000000000000       F *UND*	0000000000000000              poll
0000000000000000       F *UND*	0000000000000000              open64
0000000000000000       F *UND*	0000000000000000              dup
0000000000000000       F *UND*	0000000000000000              abort
0000000000000000       F *UND*	0000000000000000              signal
0000000000000000       F *UND*	0000000000000000              sysconf
0000000000000000       F *UND*	0000000000000000              pthread_self
0000000000000000       F *UND*	0000000000000000              pthread_getattr_np
0000000000000000       F *UND*	0000000000000000              pthread_attr_getstack
0000000000000000       F *UND*	0000000000000000              pthread_attr_destroy
0000000000000000       F *UND*	0000000000000000              sigaction
0000000000000000       F *UND*	0000000000000000              pause
000000000009a7ec g     F .text	0000000000000030              _ZN4core9panicking13assert_failed17heb5ac5589544dcc0E
0000000000089d90 g     F .text	0000000000000236              _ZN3std3sys4sync4once5futex4Once4call17h74b07ece06e25f35E
0000000000086800 g     F .text	00000000000001da              _ZN3std3env11current_dir17hc9190a9b245afa63E
0000000000000000       F *UND*	0000000000000000              getcwd
0000000000086c40 g     F .text	0000000000000169              _ZN3std3env7_var_os17h5af5bd490bdba3d6E
000000000009d820 g     F .text	00000000000000b2              _ZN5alloc7raw_vec19RawVec$LT$T$C$A$GT$8grow_one17h3199dc5002dae5e6E
000000000008a0c0 g     F .text	00000000000001af              _ZN3std3sys4sync6rwlock5futex6RwLock14read_contended17hd5223ca2cc4f107aE
000000000008a270 g     F .text	00000000000000d7              _ZN3std3sys4sync6rwlock5futex6RwLock22wake_writer_or_readers17h996aee56cbf483f2E
0000000000000000       F *UND*	0000000000000000              _Unwind_GetTextRelBase
0000000000000000       F *UND*	0000000000000000              _Unwind_GetDataRelBase
0000000000000000  w    F *UND*	0000000000000000              __cxa_thread_atexit_impl
0000000000000000       F *UND*	0000000000000000              pthread_key_create
0000000000000000       F *UND*	0000000000000000              pthread_key_delete
0000000000000000       F *UND*	0000000000000000              pthread_setspecific
00000000000000e0 g       .tbss	0000000000000008              _ZN3std6thread7current7CURRENT17haf62e92ea5888490E
000000000009d2e0 g     F .text	0000000000000056              _ZN5alloc4sync16Arc$LT$T$C$A$GT$9drop_slow17h27d24a5837f84932E
0000000000000000       F *UND*	0000000000000000              lstat64
0000000000000000       F *UND*	0000000000000000              realpath
0000000000000000       F *UND*	0000000000000000              readlink
0000000000000000  w    F *UND*	0000000000000000              statx
0000000000087930 g     F .text	0000000000000148              _ZN3std3sys2fs8metadata17h10d72764d6b6a0fdE
0000000000000000       F *UND*	0000000000000000              stat64
0000000000000000       F *UND*	0000000000000000              getenv
00000000000bf0e7 g     F .text	0000000000000030              _ZN4core9panicking13assert_failed17ha67440f6d43154c4E
0000000000000000       F *UND*	0000000000000000              getauxval
0000000000000000       F *UND*	0000000000000000              sigaltstack
0000000000000000       F *UND*	0000000000000000              pthread_attr_getguardsize
0000000000000000       F *UND*	0000000000000000              mprotect
00000000000b6a70 g     F .text	000000000000010a              _ZN4core3fmt3num3imp52_$LT$impl$u20$core..fmt..Display$u20$for$u20$u64$GT$3fmt17h3277f427d6075caeE
0000000000000000       F *UND*	0000000000000000              clock_gettime
00000000000b5c20 g     F .text	000000000000011b              _ZN81_$LT$$RF$$u5b$u8$u5d$$u20$as$u20$alloc..ffi..c_str..CString..new..SpecNewImpl$GT$13spec_new_impl17hfbbfe5651ec9f208E
0000000000089d70 g     F .text	0000000000000012              _ZN3std3sys4args4unix3imp15ARGV_INIT_ARRAY12init_wrapper17hd14d3707506720beE
000000000008a350 g     F .text	0000000000000150              _ZN3std3sys6os_str5bytes5Slice21check_public_boundary9slow_path17h39a96adff1215badE
000000000009d5e0 g     F .text	00000000000000bc              _ZN5alloc7raw_vec19RawVec$LT$T$C$A$GT$8grow_one17h23e34b6811cb62deE
00000000000a7c20 g     F .text	0000000000000271              _ZN98_$LT$std..sys..backtrace..BacktraceLock..print..DisplayBacktrace$u20$as$u20$core..fmt..Display$GT$3fmt17haa87a551a4affa55E
00000000000a6b00 g     F .text	00000000000000e4              _ZN64_$LT$std..ffi..os_str..Display$u20$as$u20$core..fmt..Display$GT$3fmt17h6d6a875bfb5b6c00E
000000000008aa40 g     F .text	0000000000000063              _ZN3std3sys9backtrace4lock17h26b1e97125f254aaE
00000000000a6850 g     F .text	000000000000001f              _ZN62_$LT$std..ffi..os_str..Display$u20$as$u20$core..fmt..Debug$GT$3fmt17he1d96d1f7eaec7c5E
00000000000cd3c8 g     O .bss	0000000000000008              _ZN3std5alloc4HOOK17hbfcb205045533fd0E
000000000008bea0 g     F .text	0000000000000159              _ZN3std5alloc24default_alloc_error_hook17hdce24f47f6f3935fE
000000000008c030 g     F .text	00000000000000c9              _ZN3std5panic19get_backtrace_style17habd62e1d5ed6271aE
00000000000a6cf0 g     F .text	0000000000000032              _ZN68_$LT$std..thread..local..AccessError$u20$as$u20$core..fmt..Debug$GT$3fmt17h31b23d723917b6f7E
0000000000000000  w    F *UND*	0000000000000000              gettid
000000000009d8e0 g     F .text	00000000000000b3              _ZN5alloc7raw_vec19RawVec$LT$T$C$A$GT$8grow_one17h3cc8e064290cdb5cE
0000000000000000       F *UND*	0000000000000000              _Unwind_Backtrace
000000000008ca76 g     F .text	0000000000000272              _ZN3std9panicking15panic_with_hook17h185ddfb86bf14d73E
000000000008c200 g     F .text	000000000000004e              _ZN3std9panicking11panic_count8increase17hacc6fcd7a3f8f62aE
000000000008c24e g     F .text	0000000000000135              _ZN3std9panicking12default_hook17hd6fdcf2489bb807dE
000000000008c9f0 g     F .text	0000000000000086              _ZN3std9panicking14payload_as_str17h100f495ccf35ebaeE
00000000000cd3f0 g     O .bss	0000000000000020              _ZN3std9panicking4HOOK17h56491ad9ee5b48fbE
00000000000b7100 g     F .text	0000000000000062              _ZN4core3fmt3num53_$LT$impl$u20$core..fmt..UpperHex$u20$for$u20$u32$GT$3fmt17h191f9befeba98474E
00000000000b6830 g     F .text	0000000000000124              _ZN4core3fmt3num3imp54_$LT$impl$u20$core..fmt..Display$u20$for$u20$isize$GT$3fmt17haaa73a96c4db1c53E
00000000000b7020 g     F .text	0000000000000065              _ZN4core3fmt3num53_$LT$impl$u20$core..fmt..LowerHex$u20$for$u20$u64$GT$3fmt17h7c1093c802362d55E
00000000000b7170 g     F .text	0000000000000065              _ZN4core3fmt3num53_$LT$impl$u20$core..fmt..UpperHex$u20$for$u20$u64$GT$3fmt17h46cb53dc08ca4d34E
00000000000b6ed0 g     F .text	0000000000000063              _ZN4core3fmt3num52_$LT$impl$u20$core..fmt..LowerHex$u20$for$u20$u8$GT$3fmt17h6c991086feef44baE
00000000000b6f40 g     F .text	0000000000000063              _ZN4core3fmt3num52_$LT$impl$u20$core..fmt..UpperHex$u20$for$u20$u8$GT$3fmt17hde63f116d7a06bd3E
00000000000bfe20 g     F .text	0000000000000421              _ZN60_$LT$core..str..lossy..Debug$u20$as$u20$core..fmt..Debug$GT$3fmt17h38e04ae19baa7e36E
00000000000b6fb0 g     F .text	0000000000000062              _ZN4core3fmt3num53_$LT$impl$u20$core..fmt..LowerHex$u20$for$u20$i32$GT$3fmt17h50c0f8c81bb6c463E
00000000000b7090 g     F .text	0000000000000062              _ZN4core3fmt3num53_$LT$impl$u20$core..fmt..UpperHex$u20$for$u20$i32$GT$3fmt17hd7ec11e909e70495E
00000000000a6520 g     F .text	000000000000026c              _ZN61_$LT$std..io..stdio..StdoutLock$u20$as$u20$std..io..Write$GT$9write_all17hbd8d4e305284f27bE
00000000000949e0 g     F .text	0000000000000163              _ZN4core5slice4sort6stable14driftsort_main17hb3697b3902a207b4E
0000000000094b50 g     F .text	000000000000015d              _ZN4core5slice4sort6stable14driftsort_main17hef4b1b3fbf775182E
0000000000094740 g     F .text	000000000000014f              _ZN4core5slice4sort6stable14driftsort_main17h832ba03dfee266fbE
00000000000977f0 g     F .text	0000000000000a86              _ZN4core5slice4sort6stable9quicksort9quicksort17h7530f7a0cdb77e23E
0000000000098c60 g     F .text	0000000000000ab3              _ZN4core5slice4sort6stable9quicksort9quicksort17hb15167da1a3e1a5cE
0000000000096df0 g     F .text	00000000000009fa              _ZN4core5slice4sort6stable9quicksort9quicksort17h69222ffdea67fa94E
0000000000099720 g     F .text	0000000000000a86              _ZN4core5slice4sort6stable9quicksort9quicksort17hc39f74970d1bd180E
0000000000098280 g     F .text	00000000000009d4              _ZN4core5slice4sort6stable9quicksort9quicksort17h9a02103ed5f9573eE
000000000009a290 g     F .text	00000000000000f4              _ZN4core5slice4sort8unstable8heapsort8heapsort17h6d5402bcc2e80e0dE
00000000000bf255 g     F .text	000000000000013e              _ZN4core9panicking19assert_failed_inner17h1a26c705b351d21aE
00000000000b65d0 g     F .text	00000000000000a0              _ZN4core3fmt17pointer_fmt_inner17hb297480c5db160e7E
00000000000b5650 g     F .text	00000000000000c2              _ZN5alloc6string6String11try_reserve17h9774032b7049ce09E
000000000009d760 g     F .text	00000000000000bc              _ZN5alloc7raw_vec19RawVec$LT$T$C$A$GT$8grow_one17h3097287fa4b49b31E
00000000000aca37 g     F .text	000000000000014a              _ZN5gimli4read6abbrev10Attributes4push17h6a5805240672d403E
00000000000acb81 g     F .text	000000000000008b              _ZN5gimli4read6abbrev12Abbreviation3new17h6af0f1777543257bE
00000000000acc0c g     F .text	0000000000000101              _ZN5gimli4read6abbrev13Abbreviations6insert17hfc4b7384e975945aE
00000000000be7c0 g     F .text	000000000000011a              _ZN4core5slice6memchr7memrchr17h0c3e43ac4b055a3eE
00000000000c05c0 g     F .text	0000000000000190              _ZN87_$LT$core..str..lossy..Utf8Chunks$u20$as$u20$core..iter..traits..iterator..Iterator$GT$4next17ha4d9b40d0432374aE
00000000000a6c30 g     F .text	000000000000004d              _ZN64_$LT$std..sys..stdio..unix..Stderr$u20$as$u20$std..io..Write$GT$14write_vectored17h004dce71f47444ddE
00000000000b1387 g     F .text	0000000000000148              _ZN63_$LT$rustc_demangle..Demangle$u20$as$u20$core..fmt..Display$GT$3fmt17h02a43133eb55c17aE
00000000000a75f0 g     F .text	0000000000000013              _ZN86_$LT$std..panicking..panic_handler..StaticStrPayload$u20$as$u20$core..fmt..Display$GT$3fmt17hb0b0e3e9d42f2521E
00000000000a7690 g     F .text	0000000000000060              _ZN89_$LT$std..panicking..panic_handler..FormatStringPayload$u20$as$u20$core..fmt..Display$GT$3fmt17hc27ba1ffc8dc3d86E
00000000000a7760 g     F .text	000000000000004c              _ZN93_$LT$std..panicking..panic_handler..StaticStrPayload$u20$as$u20$core..panic..PanicPayload$GT$8take_box17h9f59ffab04102ea8E
00000000000a7b60 g     F .text	000000000000001f              _ZN96_$LT$std..panicking..panic_handler..FormatStringPayload$u20$as$u20$core..panic..PanicPayload$GT$3get17h7a6d0b398a68a2d9E
00000000000a7b80 g     F .text	000000000000009e              _ZN96_$LT$std..panicking..panic_handler..FormatStringPayload$u20$as$u20$core..panic..PanicPayload$GT$8take_box17h8b3f4d7758bff847E
00000000000ab729 g     F .text	0000000000000171              _ZN9addr2line4line9path_push17h2e8433eba861a456E
00000000000ab5ff g     F .text	000000000000012a              _ZN9addr2line4line5Lines13find_location17h64b42863366f0b1fE
0000000000000000       F *UND*	0000000000000000              _Unwind_GetLanguageSpecificData
0000000000000000       F *UND*	0000000000000000              _Unwind_GetIPInfo
0000000000000000       F *UND*	0000000000000000              _Unwind_GetRegionStart
0000000000000000       F *UND*	0000000000000000              _Unwind_SetGR
0000000000000000       F *UND*	0000000000000000              _Unwind_SetIP
00000000000b5120 g     F .text	0000000000000014              _ZN256_$LT$alloc..boxed..convert..$LT$impl$u20$core..convert..From$LT$alloc..string..String$GT$$u20$for$u20$alloc..boxed..Box$LT$dyn$u20$core..error..Error$u2b$core..marker..Sync$u2b$core..marker..Send$GT$$GT$..from..StringError$u20$as$u20$core..fmt..Display$GT$3fmt17h1f592ea278fae292E
00000000000b5100 g     F .text	0000000000000014              _ZN254_$LT$alloc..boxed..convert..$LT$impl$u20$core..convert..From$LT$alloc..string..String$GT$$u20$for$u20$alloc..boxed..Box$LT$dyn$u20$core..error..Error$u2b$core..marker..Sync$u2b$core..marker..Send$GT$$GT$..from..StringError$u20$as$u20$core..fmt..Debug$GT$3fmt17h807799a12417eabdE
000000000008cf90 g     F .text	000000000000004b              _ZN59_$LT$std..process..ChildStdin$u20$as$u20$std..io..Write$GT$5write17h4402b9ed06c6a6f0E
000000000009d520 g     F .text	00000000000000b3              _ZN5alloc7raw_vec19RawVec$LT$T$C$A$GT$8grow_one17h5be691c8782dd2edE
000000000009d520 g     F .text	00000000000000b3              _ZN5alloc7raw_vec19RawVec$LT$T$C$A$GT$8grow_one17h6151d78a48e56df8E
000000000009d520 g     F .text	00000000000000b3              _ZN5alloc7raw_vec19RawVec$LT$T$C$A$GT$8grow_one17h706e198a4e82eb53E
000000000009d9a0 g     F .text	00000000000000a7              _ZN5alloc7raw_vec19RawVec$LT$T$C$A$GT$8grow_one17h742023f95cece9d2E
000000000009d520 g     F .text	00000000000000b3              _ZN5alloc7raw_vec19RawVec$LT$T$C$A$GT$8grow_one17ha02f2a28089006deE
000000000009d820 g     F .text	00000000000000b2              _ZN5alloc7raw_vec19RawVec$LT$T$C$A$GT$8grow_one17ha61724f728873767E
000000000009d520 g     F .text	00000000000000b3              _ZN5alloc7raw_vec19RawVec$LT$T$C$A$GT$8grow_one17habcca6f8b95852b3E
000000000009dc70 g     F .text	00000000000000a7              _ZN5alloc7raw_vec19RawVec$LT$T$C$A$GT$8grow_one17hb02271503122c4b1E
000000000009d8e0 g     F .text	00000000000000b3              _ZN5alloc7raw_vec19RawVec$LT$T$C$A$GT$8grow_one17hf628ac0969964bfeE
000000000009d9a0 g     F .text	00000000000000a7              _ZN5alloc7raw_vec19RawVec$LT$T$C$A$GT$8grow_one17hfb2310cd2fb26d49E
000000000009d5e0 g     F .text	00000000000000bc              _ZN5alloc7raw_vec19RawVec$LT$T$C$A$GT$8grow_one17h2a4195ff00d54292E
000000000009d6a0 g     F .text	00000000000000bb              _ZN5alloc7raw_vec19RawVec$LT$T$C$A$GT$8grow_one17h3927ff2416357ba2E
000000000009d6a0 g     F .text	00000000000000bb              _ZN5alloc7raw_vec19RawVec$LT$T$C$A$GT$8grow_one17h5be030844714d5cfE
000000000009da50 g     F .text	00000000000000bb              _ZN5alloc7raw_vec19RawVec$LT$T$C$A$GT$8grow_one17h722facd323c46949E
000000000009d6a0 g     F .text	00000000000000bb              _ZN5alloc7raw_vec19RawVec$LT$T$C$A$GT$8grow_one17h7fc6a3afff8c42f6E
000000000009da50 g     F .text	00000000000000bb              _ZN5alloc7raw_vec19RawVec$LT$T$C$A$GT$8grow_one17h95734fba51b4f7bdE
0000000000000000       F *UND*	0000000000000000              _Unwind_RaiseException
0000000000000000       F *UND*	0000000000000000              _Unwind_DeleteException
00000000000cd340 g     O .data	0000000000000008              _ZN6memchr4arch6x86_646memchr10memchr_raw2FN17h9a1224db1ee753d6E
00000000000ab110 g     F .text	00000000000001cf              _ZN6memchr4arch6x86_646memchr10memchr_raw6detect17h0daa0bca511929cdE
00000000000ab89a g     F .text	0000000000000078              _ZN5alloc11collections5btree3map25BTreeMap$LT$K$C$V$C$A$GT$3get17h740cddb91f0fec76E
00000000000ab912 g     F .text	00000000000000a5              _ZN5alloc11collections5btree3map25BTreeMap$LT$K$C$V$C$A$GT$5entry17h06b087335cb7eaedE
00000000000ab9b7 g     F .text	00000000000000cc              _ZN5alloc11collections5btree3map5entry28VacantEntry$LT$K$C$V$C$A$GT$12insert_entry17hba8ff1787cfc09d5E
00000000000abeaf g     F .text	0000000000000256              _ZN5alloc11collections5btree4node210Handle$LT$alloc..collections..btree..node..NodeRef$LT$alloc..collections..btree..node..marker..Mut$C$K$C$V$C$alloc..collections..btree..node..marker..Leaf$GT$$C$alloc..collections..btree..node..marker..Edge$GT$16insert_recursing17h3acfb8c354571819E
00000000000ac6df g     F .text	0000000000000031              _ZN5alloc5boxed16Box$LT$T$C$A$GT$13new_uninit_in17h2e1e01e63d763395E
00000000000aba83 g     F .text	000000000000009e              _ZN5alloc11collections5btree4node115NodeRef$LT$alloc..collections..btree..node..marker..Mut$C$K$C$V$C$alloc..collections..btree..node..marker..Leaf$GT$16push_with_handle17h49a67ac7b8b57d03E
00000000000abb21 g     F .text	00000000000000c5              _ZN5alloc11collections5btree4node119NodeRef$LT$alloc..collections..btree..node..marker..Mut$C$K$C$V$C$alloc..collections..btree..node..marker..Internal$GT$4push17he5d177fb7f959556E
00000000000ac710 g     F .text	0000000000000031              _ZN5alloc5boxed16Box$LT$T$C$A$GT$13new_uninit_in17hdf27414b52e80f8cE
00000000000abbe6 g     F .text	0000000000000126              _ZN5alloc11collections5btree4node171Handle$LT$alloc..collections..btree..node..NodeRef$LT$alloc..collections..btree..node..marker..Mut$C$K$C$V$C$NodeType$GT$$C$alloc..collections..btree..node..marker..KV$GT$15split_leaf_data17h4124186568208992E
00000000000abd0c g     F .text	000000000000009c              _ZN5alloc11collections5btree4node208Handle$LT$alloc..collections..btree..node..NodeRef$LT$alloc..collections..btree..node..marker..Mut$C$K$C$V$C$alloc..collections..btree..node..marker..Leaf$GT$$C$alloc..collections..btree..node..marker..KV$GT$5split17h16c52ea1552b991cE
00000000000abda8 g     F .text	0000000000000107              _ZN5alloc11collections5btree4node210Handle$LT$alloc..collections..btree..node..NodeRef$LT$alloc..collections..btree..node..marker..Mut$C$K$C$V$C$alloc..collections..btree..node..marker..Leaf$GT$$C$alloc..collections..btree..node..marker..Edge$GT$10insert_fit17h5b48fc4702960833E
00000000000ac105 g     F .text	000000000000018a              _ZN5alloc11collections5btree4node210Handle$LT$alloc..collections..btree..node..NodeRef$LT$alloc..collections..btree..node..marker..Mut$C$K$C$V$C$alloc..collections..btree..node..marker..Leaf$GT$$C$alloc..collections..btree..node..marker..Edge$GT$6insert17hc987f6bc060259c9E
00000000000ac56a g     F .text	0000000000000175              _ZN5alloc11collections5btree4node214Handle$LT$alloc..collections..btree..node..NodeRef$LT$alloc..collections..btree..node..marker..Mut$C$K$C$V$C$alloc..collections..btree..node..marker..Internal$GT$$C$alloc..collections..btree..node..marker..Edge$GT$6insert17h123c7c330f277373E
00000000000ac28f g     F .text	000000000000018c              _ZN5alloc11collections5btree4node212Handle$LT$alloc..collections..btree..node..NodeRef$LT$alloc..collections..btree..node..marker..Mut$C$K$C$V$C$alloc..collections..btree..node..marker..Internal$GT$$C$alloc..collections..btree..node..marker..KV$GT$5split17h487b228022f56773E
00000000000ac41b g     F .text	000000000000014f              _ZN5alloc11collections5btree4node214Handle$LT$alloc..collections..btree..node..NodeRef$LT$alloc..collections..btree..node..marker..Mut$C$K$C$V$C$alloc..collections..btree..node..marker..Internal$GT$$C$alloc..collections..btree..node..marker..Edge$GT$10insert_fit17h81d899c442220612E
00000000000ac741 g     F .text	0000000000000074              _ZN5alloc7raw_vec11finish_grow17h25b23e84503ffdf3E
00000000000ac7b5 g     F .text	0000000000000047              _ZN5alloc7raw_vec19RawVec$LT$T$C$A$GT$8grow_one17h668b35561aa1f919E
00000000000ac7fc g     F .text	0000000000000047              _ZN5alloc7raw_vec19RawVec$LT$T$C$A$GT$8grow_one17h9fcff52fbdc1d81eE
00000000000acd0d g     F .text	0000000000000001              _ZN70_$LT$alloc..vec..Vec$LT$T$C$A$GT$$u20$as$u20$core..ops..drop..Drop$GT$4drop17hd78e96e839536aa4E
00000000000abbe6 g     F .text	0000000000000126              _ZN5alloc11collections5btree4node171Handle$LT$alloc..collections..btree..node..NodeRef$LT$alloc..collections..btree..node..marker..Mut$C$K$C$V$C$NodeType$GT$$C$alloc..collections..btree..node..marker..KV$GT$15split_leaf_data17h6138a39bf37da4fbE
00000000000b135f g     F .text	0000000000000013              _ZN50_$LT$$RF$mut$u20$T$u20$as$u20$core..fmt..Debug$GT$3fmt17hbb3d9f8135ada8d1E
00000000000b03ed g     F .text	0000000000000b0a              _ZN14rustc_demangle8demangle17hc0f02eec3873c2cfE
00000000000b10db g     F .text	0000000000000076              _ZN4core3str21_$LT$impl$u20$str$GT$18trim_start_matches17ha567b4ee0ba97ca5E
00000000000b14cf g     F .text	000000000000040d              _ZN64_$LT$rustc_demangle..v0..Ident$u20$as$u20$core..fmt..Display$GT$3fmt17h6eb040b67c65dd85E
00000000000beb20 g     F .text	00000000000000f9              _ZN4core7unicode12unicode_data15grapheme_extend11lookup_slow17hc5a2b5f97729ee7fE
00000000000bec20 g     F .text	000000000000028b              _ZN4core7unicode9printable12is_printable17hcc91c4d96430c044E
00000000000b12a1 g     F .text	00000000000000be              _ZN4core6escape14escape_unicode17hf40d2215267943e6E
00000000000b0f6e g     F .text	0000000000000009              _ZN44_$LT$$RF$T$u20$as$u20$core..fmt..Display$GT$3fmt17h38e1b1e28c0d1614E
00000000000b1921 g     F .text	0000000000000043              _ZN68_$LT$rustc_demangle..DemangleStyle$u20$as$u20$core..fmt..Display$GT$3fmt17h0f9af111a81ef15fE
00000000000b0f9f g     F .text	000000000000006d              _ZN48_$LT$$u5b$T$u5d$$u20$as$u20$core..fmt..Debug$GT$3fmt17h6154fba5550b2266E
00000000000b100c g     F .text	000000000000009a              _ZN4core3fmt5Write10write_char17h3badc519f00e8dc8E
00000000000b27ec g     F .text	0000000000000025              _ZN83_$LT$rustc_demangle..SizeLimitedFmtAdapter$LT$F$GT$$u20$as$u20$core..fmt..Write$GT$9write_str17hb892f45dcb8f18e3E
00000000000b10a6 g     F .text	0000000000000035              _ZN4core3fmt5Write9write_fmt17h926a5a19b56d5969E
00000000000b92a0 g     F .text	0000000000000010              _ZN57_$LT$core..fmt..Formatter$u20$as$u20$core..fmt..Write$GT$9write_str17h8b742be6ac34d954E
00000000000b1979 g     F .text	0000000000000af5              _ZN71_$LT$rustc_demangle..legacy..Demangle$u20$as$u20$core..fmt..Display$GT$3fmt17heef1347718449544E
00000000000bd8f0 g     F .text	00000000000000b9              _ZN4core3str5count23char_count_general_case17h131e6cedc3bd189cE
00000000000bd330 g     F .text	00000000000005bb              _ZN4core3str5count14do_count_chars17h06c5e5b89e2be9c6E
00000000000b4d10 g     F .text	00000000000003e3              _ZN6adler27Adler3211write_slice17hbd0bb36d10f34d27E
00000000000b4c48 g     F .text	000000000000007e              _ZN4core5slice29_$LT$impl$u20$$u5b$T$u5d$$GT$11copy_within17hdcd369660611e2d2E
00000000000b4cc6 g     F .text	0000000000000041              _ZN4core5slice5index5range17h1a9e9ba4309719d4E
00000000000b5c20 g     F .text	000000000000011b              _ZN72_$LT$$RF$str$u20$as$u20$alloc..ffi..c_str..CString..new..SpecNewImpl$GT$13spec_new_impl17h5c79284146c438c1E
00000000000b6190 g     F .text	0000000000000099              _ZN41_$LT$char$u20$as$u20$core..fmt..Debug$GT$3fmt17h29b3470f828dfb36E
00000000000b8190 g     F .text	000000000000050f              _ZN4core3fmt9Formatter12pad_integral17h40cac2b54d8b59b5E
00000000000b9bc0 g     F .text	00000000000003fa              _ZN4core3num7flt2dec8strategy5grisu16format_exact_opt17hb9bde2d338c7b453E
00000000000b9870 g     F .text	0000000000000167              _ZN4core3num7flt2dec17digits_to_dec_str17h84380a955a1c16dcE
00000000000ba680 g     F .text	000000000000108b              _ZN4core3num7flt2dec8strategy6dragon12format_exact17h91fee90cd684a704E
00000000000b9fc0 g     F .text	00000000000006b1              _ZN4core3num7flt2dec8strategy5grisu19format_shortest_opt17hee86e539735c3047E
00000000000bb710 g     F .text	00000000000013b1              _ZN4core3num7flt2dec8strategy6dragon15format_shortest17h4c38144e4382d236E
00000000000c02d0 g     F .text	0000000000000276              _ZN68_$LT$core..fmt..builders..PadAdapter$u20$as$u20$core..fmt..Write$GT$9write_str17he2b653fa1567edb0E
00000000000b7f00 g     F .text	0000000000000112              _ZN4core3fmt8builders8DebugSet5entry17hcad1a4fd4f581beeE
00000000000b92c0 g     F .text	0000000000000053              _ZN4core3num22from_ascii_radix_panic8do_panic7runtime17h8fe9821afd2263e0E
00000000000b9320 g     F .text	0000000000000344              _ZN4core3num6bignum8Big32x4010mul_digits17h449e56a318bc6245E
00000000000b9670 g     F .text	00000000000001f3              _ZN4core3num6bignum8Big32x408mul_pow217hd9bdf1e52d0dd8d0E
000000000001b6f0 g     O .rodata	0000000000000510              _ZN4core3num7flt2dec8strategy5grisu12CACHED_POW1017hf650c89c24523947E
00000000000bcad0 g     F .text	0000000000000466              _ZN4core3num7flt2dec8strategy6dragon9mul_pow1017h0351541100c679afE
00000000000bcf90 g     F .text	0000000000000397              _ZN4core3str19slice_error_fail_rt17h31471cfde79a4d17E
00000000000be100 g     F .text	0000000000000053              _ZN4core4cell22panic_already_borrowed8do_panic7runtime17h2d72f6262c3d3345E
00000000000c0250 g     F .text	0000000000000015              _ZN65_$LT$core..cell..BorrowMutError$u20$as$u20$core..fmt..Display$GT$3fmt17hd9d2d956c0e9d371E
00000000000be470 g     F .text	0000000000000067              _ZN4core5slice29_$LT$impl$u20$$u5b$T$u5d$$GT$15copy_from_slice17len_mismatch_fail8do_panic7runtime17h3c6703ecf0e100acE
00000000000be590 g     F .text	0000000000000067              _ZN4core5slice5index16slice_index_fail8do_panic7runtime17hadf2a4aab7935f15E
00000000000be670 g     F .text	0000000000000067              _ZN4core5slice5index16slice_index_fail8do_panic7runtime17hb91505a43653abadE
00000000000be600 g     F .text	0000000000000067              _ZN4core5slice5index16slice_index_fail8do_panic7runtime17hb8f0401cc926d473E
00000000000bf3b0 g     F .text	0000000000000045              _ZN4core9panicking26panic_nounwind_nobacktrace17hecb03d81f3b0de3eE
00000000000bfe10 g     F .text	0000000000000010              _ZN59_$LT$core..fmt..Arguments$u20$as$u20$core..fmt..Display$GT$3fmt17h90f15cc8560a1477E
00000000000c0270 g     F .text	000000000000005f              _ZN68_$LT$core..fmt..builders..PadAdapter$u20$as$u20$core..fmt..Write$GT$10write_char17h241bc57951f5b0edE
00000000000be600 g     F .text	0000000000000067              _ZN4core5slice5index16slice_index_fail8do_panic7runtime17hc380f4407138e3e9E
00000000000c05a0 g     F .text	000000000000001a              _ZN82_$LT$core..char..ToUppercase$u20$as$u20$core..iter..traits..iterator..Iterator$GT$4next17h7abeeb56ad8991d1E


DYNAMIC SYMBOL TABLE:
0000000000000000      DF *UND*	0000000000000000 (GLIBC_2.34) __libc_start_main
0000000000000000  w   D  *UND*	0000000000000000  Base        __gmon_start__
0000000000000000  w   D  *UND*	0000000000000000  Base        _ITM_deregisterTMCloneTable
0000000000000000  w   D  *UND*	0000000000000000  Base        _ITM_registerTMCloneTable
0000000000000000  w   DF *UND*	0000000000000000 (GLIBC_2.2.5) __cxa_finalize
0000000000000000      DF *UND*	0000000000000000 (GLIBC_2.14) memcpy
0000000000000000      DF *UND*	0000000000000000 (GCC_3.0)    _Unwind_Resume
0000000000000000      DF *UND*	0000000000000000 (GLIBC_2.2.5) memset
0000000000000000      DF *UND*	0000000000000000 (GLIBC_2.2.5) memcmp
0000000000000000      DF *UND*	0000000000000000 (GLIBC_2.3)  __tls_get_addr
0000000000000000      DF *UND*	0000000000000000 (GLIBC_2.2.5) memmove
0000000000000000      DF *UND*	0000000000000000 (GLIBC_2.2.5) fcntl
0000000000000000      DF *UND*	0000000000000000 (GLIBC_2.2.5) __errno_location
0000000000000000      DF *UND*	0000000000000000 (GLIBC_2.2.5) close
0000000000000000      DF *UND*	0000000000000000 (GLIBC_2.2.5) posix_memalign
0000000000000000      DF *UND*	0000000000000000 (GLIBC_2.2.5) malloc
0000000000000000      DF *UND*	0000000000000000 (GLIBC_2.2.5) free
0000000000000000      DF *UND*	0000000000000000 (GLIBC_2.2.5) realloc
0000000000000000      DF *UND*	0000000000000000 (GLIBC_2.2.5) calloc
0000000000000000      DF *UND*	0000000000000000 (GLIBC_2.2.5) strlen
0000000000000000      DF *UND*	0000000000000000 (GLIBC_2.2.5) munmap
0000000000000000      DF *UND*	0000000000000000 (GLIBC_2.2.5) bcmp
0000000000000000      DF *UND*	0000000000000000 (GLIBC_2.33) fstat64
0000000000000000      DF *UND*	0000000000000000 (GLIBC_2.2.5) mmap64
0000000000000000      DF *UND*	0000000000000000 (GLIBC_2.2.5) dl_iterate_phdr
0000000000000000      DF *UND*	0000000000000000 (GCC_3.0)    _Unwind_GetIP
0000000000000000      DF *UND*	0000000000000000 (GLIBC_2.2.5) lseek64
0000000000000000      DF *UND*	0000000000000000 (GLIBC_2.2.5) write
0000000000000000      DF *UND*	0000000000000000 (GLIBC_2.2.5) read
0000000000000000      DF *UND*	0000000000000000 (GLIBC_2.2.5) writev
0000000000000000      DF *UND*	0000000000000000 (GLIBC_2.3.4) __xpg_strerror_r
0000000000000000      DF *UND*	0000000000000000 (GLIBC_2.2.5) syscall
0000000000000000      DF *UND*	0000000000000000 (GLIBC_2.2.5) poll
0000000000000000      DF *UND*	0000000000000000 (GLIBC_2.2.5) open64
0000000000000000      DF *UND*	0000000000000000 (GLIBC_2.2.5) dup
0000000000000000      DF *UND*	0000000000000000 (GLIBC_2.2.5) abort
0000000000000000      DF *UND*	0000000000000000 (GLIBC_2.2.5) signal
0000000000000000      DF *UND*	0000000000000000 (GLIBC_2.2.5) sysconf
0000000000000000      DF *UND*	0000000000000000 (GLIBC_2.2.5) pthread_self
0000000000000000      DF *UND*	0000000000000000 (GLIBC_2.32) pthread_getattr_np
0000000000000000      DF *UND*	0000000000000000 (GLIBC_2.34) pthread_attr_getstack
0000000000000000      DF *UND*	0000000000000000 (GLIBC_2.2.5) pthread_attr_destroy
0000000000000000      DF *UND*	0000000000000000 (GLIBC_2.2.5) sigaction
0000000000000000      DF *UND*	0000000000000000 (GLIBC_2.2.5) pause
0000000000000000      DF *UND*	0000000000000000 (GLIBC_2.2.5) getcwd
0000000000000000      DF *UND*	0000000000000000 (GCC_3.0)    _Unwind_GetTextRelBase
0000000000000000      DF *UND*	0000000000000000 (GCC_3.0)    _Unwind_GetDataRelBase
0000000000000000  w   DF *UND*	0000000000000000 (GLIBC_2.18) __cxa_thread_atexit_impl
0000000000000000      DF *UND*	0000000000000000 (GLIBC_2.34) pthread_key_create
0000000000000000      DF *UND*	0000000000000000 (GLIBC_2.34) pthread_key_delete
0000000000000000      DF *UND*	0000000000000000 (GLIBC_2.34) pthread_setspecific
0000000000000000      DF *UND*	0000000000000000 (GLIBC_2.33) lstat64
0000000000000000      DF *UND*	0000000000000000 (GLIBC_2.3)  realpath
0000000000000000      DF *UND*	0000000000000000 (GLIBC_2.2.5) readlink
0000000000000000  w   DF *UND*	0000000000000000 (GLIBC_2.28) statx
0000000000000000      DF *UND*	0000000000000000 (GLIBC_2.33) stat64
0000000000000000      DF *UND*	0000000000000000 (GLIBC_2.2.5) getenv
0000000000000000      DF *UND*	0000000000000000 (GLIBC_2.16) getauxval
0000000000000000      DF *UND*	0000000000000000 (GLIBC_2.2.5) sigaltstack
0000000000000000      DF *UND*	0000000000000000 (GLIBC_2.34) pthread_attr_getguardsize
0000000000000000      DF *UND*	0000000000000000 (GLIBC_2.2.5) mprotect
0000000000000000      DF *UND*	0000000000000000 (GLIBC_2.17) clock_gettime
0000000000000000  w   DF *UND*	0000000000000000 (GLIBC_2.30) gettid
0000000000000000      DF *UND*	0000000000000000 (GCC_3.3)    _Unwind_Backtrace
0000000000000000      DF *UND*	0000000000000000 (GCC_3.0)    _Unwind_GetLanguageSpecificData
0000000000000000      DF *UND*	0000000000000000 (GCC_4.2.0)  _Unwind_GetIPInfo
0000000000000000      DF *UND*	0000000000000000 (GCC_3.0)    _Unwind_GetRegionStart
0000000000000000      DF *UND*	0000000000000000 (GCC_3.0)    _Unwind_SetGR
0000000000000000      DF *UND*	0000000000000000 (GCC_3.0)    _Unwind_SetIP
0000000000000000      DF *UND*	0000000000000000 (GCC_3.0)    _Unwind_RaiseException
0000000000000000      DF *UND*	0000000000000000 (GCC_3.0)    _Unwind_DeleteException


